; ModuleID = 't.bc'
source_filename = "llvm-link"
target datalayout = "e-m:e-p270:32:32-p271:32:32-p272:64:64-i64:64-f80:128-n8:16:32:64-S128"
target triple = "x86_64-pc-linux-gnu-elf"

%struct.State = type { %struct.ArchState, [32 x %union.VectorReg], %struct.ArithFlags, %union.anon, %struct.Segments, %struct.AddressSpace, %struct.GPR, %struct.X87Stack, %struct.MMX, %struct.FPUStatusFlags, %union.anon, %union.FPU, %struct.SegmentCaches }
%struct.ArchState = type { i32, i32, %union.anon }
%union.VectorReg = type { %union.vec512_t }
%union.vec512_t = type { %struct.uint64v8_t }
%struct.uint64v8_t = type { [8 x i64] }
%struct.ArithFlags = type { i8, i8, i8, i8, i8, i8, i8, i8, i8, i8, i8, i8, i8, i8, i8, i8 }
%struct.Segments = type { i16, %union.SegmentSelector, i16, %union.SegmentSelector, i16, %union.SegmentSelector, i16, %union.SegmentSelector, i16, %union.SegmentSelector, i16, %union.SegmentSelector }
%union.SegmentSelector = type { i16 }
%struct.AddressSpace = type { i64, %struct.Reg, i64, %struct.Reg, i64, %struct.Reg, i64, %struct.Reg, i64, %struct.Reg, i64, %struct.Reg }
%struct.Reg = type { %union.anon }
%struct.GPR = type { i64, %struct.Reg, i64, %struct.Reg, i64, %struct.Reg, i64, %struct.Reg, i64, %struct.Reg, i64, %struct.Reg, i64, %struct.Reg, i64, %struct.Reg, i64, %struct.Reg, i64, %struct.Reg, i64, %struct.Reg, i64, %struct.Reg, i64, %struct.Reg, i64, %struct.Reg, i64, %struct.Reg, i64, %struct.Reg, i64, %struct.Reg }
%struct.X87Stack = type { [8 x %struct.anon.3] }
%struct.anon.3 = type { [6 x i8], %struct.float80_t }
%struct.float80_t = type { [10 x i8] }
%struct.MMX = type { [8 x %struct.anon.4] }
%struct.anon.4 = type { i64, %union.vec64_t }
%union.vec64_t = type { %struct.uint64v1_t }
%struct.uint64v1_t = type { [1 x i64] }
%struct.FPUStatusFlags = type { i8, i8, i8, i8, i8, i8, i8, i8, i8, i8, i8, i8, i8, i8, i8, i8, i8, i8, i8, i8, [4 x i8] }
%union.anon = type { i64 }
%union.FPU = type { %struct.anon.13 }
%struct.anon.13 = type { %struct.FpuFXSAVE, [96 x i8] }
%struct.FpuFXSAVE = type { %union.SegmentSelector, %union.SegmentSelector, %union.FPUAbridgedTagWord, i8, i16, i32, %union.SegmentSelector, i16, i32, %union.SegmentSelector, i16, %union.FPUControlStatus, %union.FPUControlStatus, [8 x %struct.FPUStackElem], [16 x %union.vec128_t] }
%union.FPUAbridgedTagWord = type { i8 }
%union.FPUControlStatus = type { i32 }
%struct.FPUStackElem = type { %union.anon.11, [6 x i8] }
%union.anon.11 = type { %struct.float80_t }
%union.vec128_t = type { %struct.uint128v1_t }
%struct.uint128v1_t = type { [1 x i128] }
%struct.SegmentCaches = type { %struct.SegmentShadow, %struct.SegmentShadow, %struct.SegmentShadow, %struct.SegmentShadow, %struct.SegmentShadow, %struct.SegmentShadow }
%struct.SegmentShadow = type { %union.anon, i32, i32 }
%seg_400000_LOAD_bc0_type = type <{ [8 x i8], [8 x i8], [8 x i8], i8*, [4 x i8], [4 x i8], [4 x i8], [8 x i8], [24 x i8], [4 x i8], [4 x i8], [4 x i8], [4 x i8], [4 x i8], [4 x i8], [4 x i8], [4 x i8], [4 x i8], [4 x i8], [4 x i8], [12 x i8], [4 x i8], [4 x i8], [4 x i8], [4 x i8], [4 x i8], [4 x i8], [4 x i8], [4 x i8], [4 x i8], [4 x i8], [4 x i8], [8 x i8], [8 x i8], [4 x i8], [4 x i8], [4 x i8], [4 x i8], [4 x i8], [4 x i8], [4 x i8], [4 x i8], [4 x i8], [4 x i8], [12 x i8], [4 x i8], i8*, [4 x i8], [4 x i8], [4 x i8], [4 x i8], [4 x i8], [4 x i8], [4 x i8], [4 x i8], [12 x i8], [4 x i8], i8*, [4 x i8], [4 x i8], [4 x i8], [4 x i8], [4 x i8], [4 x i8], [4 x i8], [4 x i8], [12 x i8], [4 x i8], i8*, [4 x i8], [4 x i8], [4 x i8], [4 x i8], [4 x i8], [4 x i8], [4 x i8], [4 x i8], [12 x i8], [4 x i8], [4 x i8], [4 x i8], [4 x i8], [4 x i8], [4 x i8], [4 x i8], [4 x i8], [4 x i8], [4 x i8], [4 x i8], [12 x i8], [4 x i8], [4 x i8], [4 x i8], [4 x i8], [4 x i8], [4 x i8], [4 x i8], [4 x i8], [4 x i8], [4 x i8], [4 x i8], [12 x i8], [4 x i8], [4 x i8], [4 x i8], [4 x i8], [4 x i8], [4 x i8], [4 x i8], [4 x i8], [4 x i8], [4 x i8], [4 x i8], [12 x i8], [4 x i8], [4 x i8], [4 x i8], [4 x i8], [4 x i8], [4 x i8], [4 x i8], [4 x i8], [4 x i8], [4 x i8], [4 x i8], [12 x i8], [4 x i8], i8*, [4 x i8], [4 x i8], [4 x i8], [4 x i8], [4 x i8], [4 x i8], [4 x i8], [4 x i8], [8 x i8], [40 x i8], [4 x i8], [4 x i8], [12 x i8], [4 x i8], i8*, [4 x i8], [4 x i8], [4 x i8], [4 x i8], [4 x i8], [4 x i8], [4 x i8], [4 x i8], [28 x i8], [4 x i8], [28 x i8], [4 x i8], [52 x i8], [4 x i8], [8 x i8], [8 x i8], [24 x i8], [4 x i8], [28 x i8], [24 x i8], [8 x i8], [16 x i8], [8 x i8], [16 x i8], [8 x i8], [16 x i8], [8 x i8], [16 x i8], [8 x i8], [16 x i8], [8 x i8], [16 x i8], [8 x i8], [16 x i8], [8 x i8], [16 x i8], [8 x i8], [16 x i8], [8 x i8], [16 x i8], [8 x i8], [16 x i8], [8 x i8], [16 x i8], [8 x i8], [16 x i8], [8 x i8], [16 x i8], [8 x i8], [16 x i8], [8 x i8], [16 x i8], [12 x i8], [12 x i8], [12 x i8], [12 x i8], [12 x i8], [4 x i8], [4 x i8], [4 x i8], [12 x i8], [12 x i8], [12 x i8], [12 x i8], [844 x i8], [4 x i8], [28 x i8], [4 x i8], [60 x i8], [4 x i8], [12 x i8], [4 x i8], [28 x i8], [4 x i8], [4 x i8], [4 x i8], [8 x i8], [8 x i8], [4 x i8], [4 x i8], [8 x i8], [8 x i8], [4 x i8], [4 x i8], [8 x i8], [8 x i8], [4 x i8], [4 x i8], [8 x i8], [8 x i8], [4 x i8], [4 x i8], [8 x i8], [8 x i8], [4 x i8], [4 x i8], [8 x i8], [8 x i8], [4 x i8], [4 x i8], [8 x i8], [8 x i8], [4 x i8], [4 x i8], [8 x i8], [8 x i8], [4 x i8], [4 x i8], [8 x i8], [8 x i8], [4 x i8], [4 x i8], [8 x i8], [8 x i8], [4 x i8], [4 x i8], [8 x i8], [8 x i8], [4 x i8], [4 x i8], [8 x i8], [8 x i8], [4 x i8], [4 x i8], [8 x i8], [8 x i8], [4 x i8], [4 x i8], [8 x i8], [8 x i8], [4 x i8], [4 x i8], [8 x i8], [8 x i8], [4 x i8], [4 x i8], [8 x i8], [8 x i8], [4 x i8], [4 x i8], [8 x i8], [8 x i8], [4 x i8], [4 x i8], [8 x i8], [8 x i8], [4 x i8], [4 x i8], [8 x i8], [8 x i8], [4 x i8], [4 x i8], [8 x i8], [8 x i8], [4 x i8], [4 x i8], [8 x i8], [8 x i8] }>
%seg_401000__init_1b_type = type <{ [27 x i8], [5 x i8], [304 x i8], [24 x i8], [4 x i8], [20 x i8], [4 x i8], [72 x i8], [4 x i8], [56 x i8], [4 x i8], [36 x i8], [4 x i8], [20 x i8], [4 x i8], [44 x i8], [4 x i8], [16 x i8], [4 x i8], [140 x i8], [4 x i8], [60 x i8], [4 x i8], [152 x i8], [4 x i8], [48 x i8], [4 x i8], [176 x i8], [4 x i8], [164 x i8], [4 x i8], [12 x i8], [4 x i8], [28 x i8], [4 x i8], [63 x i8], [1 x i8], [13 x i8] }>
%seg_402000__rodata_1a_type = type <{ [8 x i8], [1 x i8], [16 x i8], [1 x i8], [2 x i8], [100 x i8], [4 x i8], [4 x i8], [52 x i8], [4 x i8], [36 x i8], [4 x i8], [196 x i8], [4 x i8], [104 x i8], [4 x i8], [44 x i8], [4 x i8] }>
%seg_403dd8__init_array_18_type = type <{ i8*, i8*, i8*, [4 x i8], [4 x i8], [4 x i8], [4 x i8], [4 x i8], [4 x i8], [4 x i8], [4 x i8], [4 x i8], [4 x i8], [4 x i8], [4 x i8], [4 x i8], [4 x i8], [4 x i8], [4 x i8], [4 x i8], [4 x i8], [4 x i8], [4 x i8], [4 x i8], [4 x i8], [4 x i8], [4 x i8], [4 x i8], [4 x i8], [4 x i8], [4 x i8], [4 x i8], [4 x i8], [4 x i8], [4 x i8], [4 x i8], [4 x i8], [4 x i8], [4 x i8], [4 x i8], [4 x i8], [4 x i8], [4 x i8], [4 x i8], [4 x i8], [4 x i8], [4 x i8], [4 x i8], [4 x i8], [4 x i8], [4 x i8], [4 x i8], [4 x i8], [4 x i8], [4 x i8], [4 x i8], [4 x i8], [4 x i8], [4 x i8], [4 x i8], [4 x i8], [4 x i8], [4 x i8], [4 x i8], [12 x i8], [4 x i8], [4 x i8], [4 x i8], [4 x i8], [4 x i8], [4 x i8], [4 x i8], [4 x i8], [4 x i8], [4 x i8], [4 x i8], [4 x i8], [4 x i8], [4 x i8], [4 x i8], [4 x i8], [4 x i8], [4 x i8], [4 x i8], [4 x i8], [4 x i8], [4 x i8], [4 x i8], [4 x i8], [4 x i8], [4 x i8], [4 x i8], [4 x i8], [4 x i8], [4 x i8], [4 x i8], [4 x i8], [4 x i8], [4 x i8], [4 x i8], [4 x i8], [4 x i8], [4 x i8], [4 x i8], [100 x i8], i8*, i8*, [4 x i8], [20 x i8], i8*, i8*, i8*, i8*, i8*, i8*, i8*, i8*, i8*, i8*, i8*, i8*, i8*, i8*, i8*, i8*, i8*, i8*, [16 x i8], [8 x i8], [280 x i8], [1 x i8] }>
%struct.Memory = type opaque

@__mcsema_reg_state = thread_local(initialexec) global %struct.State zeroinitializer
@__mcsema_stack = internal thread_local(initialexec) global [1048576 x i8] zeroinitializer
@0 = internal global i1 false
@_ZSt4cout = external global i8, align 64
@__mcsema_all_segments = internal global <{ %seg_400000_LOAD_bc0_type, [1088 x i8], %seg_401000__init_1b_type, [2551 x i8], %seg_402000__rodata_1a_type, [7052 x i8], %seg_403dd8__init_array_18_type }> <{ %seg_400000_LOAD_bc0_type <{ [8 x i8] c"\7FELF\02\01\01\00", [8 x i8] zeroinitializer, [8 x i8] c"\02\00>\00\01\00\00\00", i8* bitcast (void ()* @_start to i8*), [4 x i8] c"@\00\00\00", [4 x i8] zeroinitializer, [4 x i8] c"\D8A\00\00", [8 x i8] zeroinitializer, [24 x i8] c"@\008\00\0D\00@\00\1F\00\1E\00\06\00\00\00\04\00\00\00@\00\00\00", [4 x i8] zeroinitializer, [4 x i8] c"@\00@\00", [4 x i8] zeroinitializer, [4 x i8] c"@\00@\00", [4 x i8] zeroinitializer, [4 x i8] c"\D8\02\00\00", [4 x i8] zeroinitializer, [4 x i8] c"\D8\02\00\00", [4 x i8] zeroinitializer, [4 x i8] c"\08\00\00\00", [4 x i8] zeroinitializer, [12 x i8] c"\03\00\00\00\04\00\00\00\18\03\00\00", [4 x i8] zeroinitializer, [4 x i8] c"\18\03@\00", [4 x i8] zeroinitializer, [4 x i8] c"\18\03@\00", [4 x i8] zeroinitializer, [4 x i8] c"\1C\00\00\00", [4 x i8] zeroinitializer, [4 x i8] c"\1C\00\00\00", [4 x i8] zeroinitializer, [4 x i8] c"\01\00\00\00", [4 x i8] zeroinitializer, [8 x i8] c"\01\00\00\00\04\00\00\00", [8 x i8] zeroinitializer, [4 x i8] c"\00\00@\00", [4 x i8] zeroinitializer, [4 x i8] c"\00\00@\00", [4 x i8] zeroinitializer, [4 x i8] c"\C0\0B\00\00", [4 x i8] zeroinitializer, [4 x i8] c"\C0\0B\00\00", [4 x i8] zeroinitializer, [4 x i8] c"\00\10\00\00", [4 x i8] zeroinitializer, [12 x i8] c"\01\00\00\00\05\00\00\00\00\10\00\00", [4 x i8] zeroinitializer, i8* bitcast (void ()* @.init_proc to i8*), [4 x i8] c"\00\10@\00", [4 x i8] zeroinitializer, [4 x i8] c"\09\06\00\00", [4 x i8] zeroinitializer, [4 x i8] c"\09\06\00\00", [4 x i8] zeroinitializer, [4 x i8] c"\00\10\00\00", [4 x i8] zeroinitializer, [12 x i8] c"\01\00\00\00\04\00\00\00\00 \00\00", [4 x i8] zeroinitializer, i8* @data_402000, [4 x i8] c"\00 @\00", [4 x i8] zeroinitializer, [4 x i8] c"L\02\00\00", [4 x i8] zeroinitializer, [4 x i8] c"L\02\00\00", [4 x i8] zeroinitializer, [4 x i8] c"\00\10\00\00", [4 x i8] zeroinitializer, [12 x i8] c"\01\00\00\00\06\00\00\00\D8-\00\00", [4 x i8] zeroinitializer, i8* bitcast (i8** @data_403dd8 to i8*), [4 x i8] c"\D8=@\00", [4 x i8] zeroinitializer, [4 x i8] c"\E0\02\00\00", [4 x i8] zeroinitializer, [4 x i8] c"\00\04\00\00", [4 x i8] zeroinitializer, [4 x i8] c"\00\10\00\00", [4 x i8] zeroinitializer, [12 x i8] c"\02\00\00\00\06\00\00\00\F0-\00\00", [4 x i8] zeroinitializer, [4 x i8] c"\F0=@\00", [4 x i8] zeroinitializer, [4 x i8] c"\F0=@\00", [4 x i8] zeroinitializer, [4 x i8] c"\00\02\00\00", [4 x i8] zeroinitializer, [4 x i8] c"\00\02\00\00", [4 x i8] zeroinitializer, [4 x i8] c"\08\00\00\00", [4 x i8] zeroinitializer, [12 x i8] c"\04\00\00\00\04\00\00\008\03\00\00", [4 x i8] zeroinitializer, [4 x i8] c"8\03@\00", [4 x i8] zeroinitializer, [4 x i8] c"8\03@\00", [4 x i8] zeroinitializer, [4 x i8] c" \00\00\00", [4 x i8] zeroinitializer, [4 x i8] c" \00\00\00", [4 x i8] zeroinitializer, [4 x i8] c"\08\00\00\00", [4 x i8] zeroinitializer, [12 x i8] c"\04\00\00\00\04\00\00\00X\03\00\00", [4 x i8] zeroinitializer, [4 x i8] c"X\03@\00", [4 x i8] zeroinitializer, [4 x i8] c"X\03@\00", [4 x i8] zeroinitializer, [4 x i8] c"D\00\00\00", [4 x i8] zeroinitializer, [4 x i8] c"D\00\00\00", [4 x i8] zeroinitializer, [4 x i8] c"\04\00\00\00", [4 x i8] zeroinitializer, [12 x i8] c"S\E5td\04\00\00\008\03\00\00", [4 x i8] zeroinitializer, [4 x i8] c"8\03@\00", [4 x i8] zeroinitializer, [4 x i8] c"8\03@\00", [4 x i8] zeroinitializer, [4 x i8] c" \00\00\00", [4 x i8] zeroinitializer, [4 x i8] c" \00\00\00", [4 x i8] zeroinitializer, [4 x i8] c"\08\00\00\00", [4 x i8] zeroinitializer, [12 x i8] c"P\E5td\04\00\00\00\1C \00\00", [4 x i8] zeroinitializer, i8* @data_40201c, [4 x i8] c"\1C @\00", [4 x i8] zeroinitializer, [4 x i8] c"d\00\00\00", [4 x i8] zeroinitializer, [4 x i8] c"d\00\00\00", [4 x i8] zeroinitializer, [4 x i8] c"\04\00\00\00", [4 x i8] zeroinitializer, [8 x i8] c"Q\E5td\06\00\00\00", [40 x i8] zeroinitializer, [4 x i8] c"\10\00\00\00", [4 x i8] zeroinitializer, [12 x i8] c"R\E5td\04\00\00\00\D8-\00\00", [4 x i8] zeroinitializer, i8* bitcast (i8** @data_403dd8 to i8*), [4 x i8] c"\D8=@\00", [4 x i8] zeroinitializer, [4 x i8] c"(\02\00\00", [4 x i8] zeroinitializer, [4 x i8] c"(\02\00\00", [4 x i8] zeroinitializer, [4 x i8] c"\01\00\00\00", [4 x i8] zeroinitializer, [28 x i8] c"/lib64/ld-linux-x86-64.so.2\00", [4 x i8] zeroinitializer, [28 x i8] c"\04\00\00\00\10\00\00\00\05\00\00\00GNU\00\02\80\00\C0\04\00\00\00\01\00\00\00", [4 x i8] zeroinitializer, [52 x i8] c"\04\00\00\00\14\00\00\00\03\00\00\00GNU\00:\CCU\00\04ss|\9F\E1\12O\9B\01\D1\E7\98\9B\9F\93\04\00\00\00\10\00\00\00\01\00\00\00GNU\00", [4 x i8] zeroinitializer, [8 x i8] c"\03\00\00\00\02\00\00\00", [8 x i8] zeroinitializer, [24 x i8] c"\03\00\00\00\11\00\00\00\01\00\00\00\06\00\00\00\00\00\10\00!\01\10\09", [4 x i8] zeroinitializer, [28 x i8] c"\11\00\00\00\12\00\00\00!\FD\F4\09\E4\DE\93\1C\14\98\0CCxIk\B6)E\D5L", [24 x i8] zeroinitializer, [8 x i8] c"\CA\02\00\00\12\00\00\00", [16 x i8] zeroinitializer, [8 x i8] c"\BA\01\00\00\12\00\00\00", [16 x i8] zeroinitializer, [8 x i8] c"\0C\01\00\00\12\00\00\00", [16 x i8] zeroinitializer, [8 x i8] c"\11\02\00\00\12\00\00\00", [16 x i8] zeroinitializer, [8 x i8] c"\A4\02\00\00\12\00\00\00", [16 x i8] zeroinitializer, [8 x i8] c"\B6\02\00\00\12\00\00\00", [16 x i8] zeroinitializer, [8 x i8] c"`\00\00\00\12\00\00\00", [16 x i8] zeroinitializer, [8 x i8] c"\87\01\00\00\12\00\00\00", [16 x i8] zeroinitializer, [8 x i8] c"\C4\00\00\00\12\00\00\00", [16 x i8] zeroinitializer, [8 x i8] c".\01\00\00\12\00\00\00", [16 x i8] zeroinitializer, [8 x i8] c"U\02\00\00\12\00\00\00", [16 x i8] zeroinitializer, [8 x i8] c"\F9\01\00\00\12\00\00\00", [16 x i8] zeroinitializer, [8 x i8] c"\8B\02\00\00\12\00\00\00", [16 x i8] zeroinitializer, [8 x i8] c"\AD\01\00\00\12\00\00\00", [16 x i8] zeroinitializer, [8 x i8] c"\10\00\00\00 \00\00\00", [16 x i8] zeroinitializer, [8 x i8] c"\1F\00\00\00\12\00\00\00", [16 x i8] zeroinitializer, [12 x i8] c"\D1\00\00\00\12\00\00\00P\10@\00", [12 x i8] zeroinitializer, [12 x i8] c"\C3\02\00\00\12\00\00\00\80\10@\00", [12 x i8] zeroinitializer, [12 x i8] c"K\02\00\00\11\00\1A\00\C0@@\00", [4 x i8] zeroinitializer, [4 x i8] c"\10\01\00\00", [4 x i8] zeroinitializer, [12 x i8] c"\98\01\00\00\12\00\00\00\00\11@\00", [12 x i8] zeroinitializer, [12 x i8] c"o\01\00\00\12\00\00\00@\11@\00", [12 x i8] zeroinitializer, [844 x i8] c"\00libstdc++.so.6\00__gmon_start__\00_ZNSt7__cxx1112basic_stringIcSt11char_traitsIcESaIcEE6insertEmmc\00_ZStlsIcSt11char_traitsIcESaIcEERSt13basic_ostreamIT_T0_ES7_RKNSt7__cxx1112basic_stringIS4_S5_T1_EE\00_ZNSaIcED1Ev\00_ZSt4endlIcSt11char_traitsIcEERSt13basic_ostreamIT_T0_ES6_\00_ZSt24__throw_invalid_argumentPKc\00_ZNSt7__cxx1112basic_stringIcSt11char_traitsIcESaIcEEC1EPKcRKS3_\00_ZNSt8ios_base4InitD1Ev\00_ZNSolsEPFRSoS_E\00__gxx_personality_v0\00_ZNSaIcEC1Ev\00_ZNKSt7__cxx1112basic_stringIcSt11char_traitsIcESaIcEE5c_strEv\00_ZNSt8ios_base4InitC1Ev\00_ZNSt7__cxx1112basic_stringIcSt11char_traitsIcESaIcEED1Ev\00_ZSt4cout\00_ZSt20__throw_out_of_rangePKc\00libm.so.6\00libgcc_s.so.1\00_Unwind_Resume\00libc.so.6\00__libc_start_main\00__cxa_atexit\00strtod\00__errno_location\00GCC_3.0\00CXXABI_1.3\00GLIBCXX_3.4\00GLIBCXX_3.4.21\00GLIBC_2.34\00GLIBC_2.2.5\00\00\00\02\00\03\00\04\00\03\00\05\00\02\00\03\00\04\00\04\00\03\00\04\00\04\00\07\00\04\00\00\00\03\00\04\00\02\00\04\00\06\00\04\00", [4 x i8] zeroinitializer, [28 x i8] c"\01\00\01\00}\02\00\00\10\00\00\00 \00\00\00P&y\0B\00\00\07\00\DB\02\00\00", [4 x i8] zeroinitializer, [60 x i8] c"\01\00\03\00\01\00\00\00\10\00\00\00@\00\00\00\D3\AFk\05\00\00\06\00\E3\02\00\00\10\00\00\00t)\92\08\00\00\04\00\EE\02\00\00\10\00\00\00q\F8\97\02\00\00\03\00\FA\02\00\00", [4 x i8] zeroinitializer, [12 x i8] c"\01\00\02\00\9A\02\00\00\10\00\00\00", [4 x i8] zeroinitializer, [28 x i8] c"\B4\91\96\06\00\00\05\00\09\03\00\00\10\00\00\00u\1Ai\09\00\00\02\00\14\03\00\00", [4 x i8] zeroinitializer, [4 x i8] c"\F0?@\00", [4 x i8] zeroinitializer, [8 x i8] c"\06\00\00\00\05\00\00\00", [8 x i8] zeroinitializer, [4 x i8] c"\F8?@\00", [4 x i8] zeroinitializer, [8 x i8] c"\06\00\00\00\0F\00\00\00", [8 x i8] zeroinitializer, [4 x i8] c"\C0@@\00", [4 x i8] zeroinitializer, [8 x i8] c"\05\00\00\00\13\00\00\00", [8 x i8] zeroinitializer, [4 x i8] c"\18@@\00", [4 x i8] zeroinitializer, [8 x i8] c"\07\00\00\00\01\00\00\00", [8 x i8] zeroinitializer, [4 x i8] c" @@\00", [4 x i8] zeroinitializer, [8 x i8] c"\07\00\00\00\02\00\00\00", [8 x i8] zeroinitializer, [4 x i8] c"(@@\00", [4 x i8] zeroinitializer, [8 x i8] c"\07\00\00\00\11\00\00\00", [8 x i8] zeroinitializer, [4 x i8] c"0@@\00", [4 x i8] zeroinitializer, [8 x i8] c"\07\00\00\00\03\00\00\00", [8 x i8] zeroinitializer, [4 x i8] c"8@@\00", [4 x i8] zeroinitializer, [8 x i8] c"\07\00\00\00\04\00\00\00", [8 x i8] zeroinitializer, [4 x i8] c"@@@\00", [4 x i8] zeroinitializer, [8 x i8] c"\07\00\00\00\12\00\00\00", [8 x i8] zeroinitializer, [4 x i8] c"H@@\00", [4 x i8] zeroinitializer, [8 x i8] c"\07\00\00\00\06\00\00\00", [8 x i8] zeroinitializer, [4 x i8] c"P@@\00", [4 x i8] zeroinitializer, [8 x i8] c"\07\00\00\00\07\00\00\00", [8 x i8] zeroinitializer, [4 x i8] c"X@@\00", [4 x i8] zeroinitializer, [8 x i8] c"\07\00\00\00\08\00\00\00", [8 x i8] zeroinitializer, [4 x i8] c"`@@\00", [4 x i8] zeroinitializer, [8 x i8] c"\07\00\00\00\09\00\00\00", [8 x i8] zeroinitializer, [4 x i8] c"h@@\00", [4 x i8] zeroinitializer, [8 x i8] c"\07\00\00\00\0A\00\00\00", [8 x i8] zeroinitializer, [4 x i8] c"p@@\00", [4 x i8] zeroinitializer, [8 x i8] c"\07\00\00\00\0B\00\00\00", [8 x i8] zeroinitializer, [4 x i8] c"x@@\00", [4 x i8] zeroinitializer, [8 x i8] c"\07\00\00\00\0C\00\00\00", [8 x i8] zeroinitializer, [4 x i8] c"\80@@\00", [4 x i8] zeroinitializer, [8 x i8] c"\07\00\00\00\14\00\00\00", [8 x i8] zeroinitializer, [4 x i8] c"\88@@\00", [4 x i8] zeroinitializer, [8 x i8] c"\07\00\00\00\0D\00\00\00", [8 x i8] zeroinitializer, [4 x i8] c"\90@@\00", [4 x i8] zeroinitializer, [8 x i8] c"\07\00\00\00\0E\00\00\00", [8 x i8] zeroinitializer, [4 x i8] c"\98@@\00", [4 x i8] zeroinitializer, [8 x i8] c"\07\00\00\00\10\00\00\00", [8 x i8] zeroinitializer, [4 x i8] c"\A0@@\00", [4 x i8] zeroinitializer, [8 x i8] c"\07\00\00\00\15\00\00\00", [8 x i8] zeroinitializer }>, [1088 x i8] zeroinitializer, %seg_401000__init_1b_type <{ [27 x i8] c"\F3\0F\1E\FAH\83\EC\08H\8B\05\E9/\00\00H\85\C0t\02\FF\D0H\83\C4\08\C3", [5 x i8] zeroinitializer, [304 x i8] c"\FF5\E2/\00\00\FF%\E4/\00\00\0F\1F@\00\FF%\E2/\00\00h\00\00\00\00\E9\E0\FF\FF\FF\FF%\DA/\00\00h\01\00\00\00\E9\D0\FF\FF\FF\FF%\D2/\00\00h\02\00\00\00\E9\C0\FF\FF\FF\FF%\CA/\00\00h\03\00\00\00\E9\B0\FF\FF\FF\FF%\C2/\00\00h\04\00\00\00\E9\A0\FF\FF\FF\FF%\BA/\00\00h\05\00\00\00\E9\90\FF\FF\FF\FF%\B2/\00\00h\06\00\00\00\E9\80\FF\FF\FF\FF%\AA/\00\00h\07\00\00\00\E9p\FF\FF\FF\FF%\A2/\00\00h\08\00\00\00\E9`\FF\FF\FF\FF%\9A/\00\00h\09\00\00\00\E9P\FF\FF\FF\FF%\92/\00\00h\0A\00\00\00\E9@\FF\FF\FF\FF%\8A/\00\00h\0B\00\00\00\E90\FF\FF\FF\FF%\82/\00\00h\0C\00\00\00\E9 \FF\FF\FF\FF%z/\00\00h\0D\00\00\00\E9\10\FF\FF\FF\FF%r/\00\00h\0E\00\00\00\E9\00\FF\FF\FF\FF%j/\00\00h\0F\00\00\00\E9\F0\FE\FF\FF\FF%b/\00\00h\10\00\00\00\E9\E0\FE\FF\FF\FF%Z/\00\00h\11\00\00\00\E9\D0\FE\FF\FF", [24 x i8] c"UH\89\E5H\BF\D1A@\00\00\00\00\00\E8\8D\FF\FF\FFH\B8@\11@", [4 x i8] zeroinitializer, [20 x i8] c"\00H\89\C7H\BE\D1A@\00\00\00\00\00H\BA\B0@@\00", [4 x i8] zeroinitializer, [72 x i8] c"\E8\07\FF\FF\FF]\C3\0F\1FD\00\00UH\89\E5\E8\B7\FF\FF\FF]\C3\0F\1FD\00\00\F3\0F\1E\FA1\EDI\89\D1^H\89\E2H\83\E4\F0PTE1\C01\C9H\C7\C7\90\12@\00\FF\15+.\00\00\F4f.\0F\1F\84\00", [4 x i8] zeroinitializer, [56 x i8] c"\F3\0F\1E\FA\C3f.\0F\1F\84\00\00\00\00\00\90\B8\B8@@\00H=\B8@@\00t\13\B8\00\00\00\00H\85\C0t\09\BF\B8@@\00\FF\E0f\90\C3ff.\0F\1F\84\00", [4 x i8] zeroinitializer, [36 x i8] c"\0F\1F@\00\BE\B8@@\00H\81\EE\B8@@\00H\89\F0H\C1\EE?H\C1\F8\03H\01\C6H\D1\FEt\11\B8", [4 x i8] zeroinitializer, [20 x i8] c"H\85\C0t\07\BF\B8@@\00\FF\E0\C3ff.\0F\1F\84\00", [4 x i8] zeroinitializer, [44 x i8] c"\0F\1F@\00\F3\0F\1E\FA\80=u/\00\00\00u\13UH\89\E5\E8z\FF\FF\FF\C6\05c/\00\00\01]\C3\90\C3ff.\0F\1F\84\00", [4 x i8] zeroinitializer, [16 x i8] c"\0F\1F@\00\F3\0F\1E\FA\EB\8Af.\0F\1F\84\00", [4 x i8] zeroinitializer, [140 x i8] c"UH\89\E5H\81\EC\90\00\00\00\C7E\FC\00\00\00\00H\8DE\D0H\89\C7H\89E\88\E8n\FE\FF\FF\BE\04 @\00H\8D}\D8H\8BU\88\E8\0C\FE\FF\FF\E9\00\00\00\00H\8D}\D0\E8\EE\FD\FF\FF1\C0\89\C6H\8D}\D8\E8!\01\00\00\F2\0F\11E\80\E9\00\00\00\00\F2\0F\10E\80\F2\0F\11E\B8H\8DE\90H\89\C7H\89\85x\FF\FF\FF\E8\1A\FE\FF\FF\BE\09 @\00H\8D}\98H\8B\95x\FF\FF\FF\E8\B5\FD\FF\FF\E9", [4 x i8] zeroinitializer, [60 x i8] c"H\8D}\90\E8\97\FD\FF\FFH\8D}\98\BE\05\00\00\00\BA\01\00\00\00\B9,\00\00\00\E8\EF\FD\FF\FF\E9\00\00\00\00\BF\C0@@\00H\8Du\98\E8L\FD\FF\FFH\89\85p\FF\FF\FF\E9", [4 x i8] zeroinitializer, [152 x i8] c"\BEP\10@\00H\8B\BDp\FF\FF\FF\E8?\FD\FF\FF\E9\00\00\00\00\C7E\FC\00\00\00\00H\8D}\98\E8\EA\FC\FF\FFH\8D}\D8\E8\E1\FC\FF\FF\8BE\FCH\81\C4\90\00\00\00]\C3H\89E\C8\89U\C4H\8D}\D0\E8\15\FD\FF\FF\E9:\00\00\00H\89E\C8\89U\C4\E9%\00\00\00H\89E\C8\89U\C4H\8D}\90\E8\F4\FC\FF\FF\E9\10\00\00\00H\89E\C8\89U\C4H\8D}\98\E8\8F\FC\FF\FFH\8D}\D8\E8\86\FC\FF\FFH\8B}\C8\E8\1D\FD\FF\FFf.\0F\1F\84", [4 x i8] zeroinitializer, [48 x i8] c"\00\0F\1F\00UH\89\E5H\83\EC\10H\89}\F8H\89u\F0H\8B}\F8\E8'\FC\FF\FFH\8BM\F0H\BF\80\10@\00\00\00\00\00H\BE\15 @", [4 x i8] zeroinitializer, [176 x i8] c"\00H\89\C2\E8\07\00\00\00H\83\C4\10]\C3\90UH\89\E5H\83\ECpH\89}\F8H\89u\F0H\89U\E8H\89M\E0H\8D}\C8\E8\FF\00\00\00H\8BE\F8H\8B}\E8H\8Du\D0\FF\D0\F2\0F\11E\A0\E9\00\00\00\00\F2\0F\10E\A0\F2\0F\11E\C0H\8BE\D0H;E\E8\0F\85#\00\00\00H\8B}\F0\E8\C6\FB\FF\FF\E9\00\00\00\00H\89E\B8\89U\B4H\8D}\C8\E8\11\01\00\00\E9\98\00\00\00\E8w\FB\FF\FF\838\22\B1\01\88M\9F\0F\84\1D\00\00\00\F2\0F\10E\C0\E8\CF\00\00\00\88E\9E\E9\00\00\00\00\8AE\9E\88E\9F\E9", [4 x i8] zeroinitializer, [164 x i8] c"\8AE\9F\A8\01\0F\85\05\00\00\00\E9\0E\00\00\00H\8B}\F0\E8\E3\FB\FF\FF\E9\00\00\00\00\F2\0F\10E\C0\F2\0F\11E\D8\E9\00\00\00\00H\83}\E0\00\0F\84\12\00\00\00H\8BE\D0H\8BM\E8H)\C8H\8BM\E0H\89\01\F2\0F\10E\D8H\8D}\C8\F2\0F\11E\90\E8\7F\00\00\00\F2\0F\10E\90H\83\C4p]\C3H\8B}\B8\E8\BB\FB\FF\FFf.\0F\1F\84\00\00\00\00\00\90UH\89\E5H\83\EC\10H\89}\F8H\8BE\F8H\89E\F0\E8\B7\FA\FF\FF\8B\08H\8BE\F0\89\08\E8\AA\FA\FF\FF\C7\00", [4 x i8] zeroinitializer, [12 x i8] c"H\83\C4\10]\C3f.\0F\1F\84\00", [4 x i8] zeroinitializer, [28 x i8] c"\0F\1F@\00UH\89\E51\C0\F2\0F\11E\F0$\01\0F\B6\C0]\C3f.\0F\1F\84\00", [4 x i8] zeroinitializer, [63 x i8] c"\0F\1F@\00UH\89\E5H\83\EC H\89}\F8H\8BE\F8H\89E\F0\E8W\FA\FF\FF\838\00\0F\85\13\00\00\00H\8BE\F0\8B\08\89M\EC\E8@\FA\FF\FF\8BM\EC\89\08H\83\C4 ]\C3", [1 x i8] zeroinitializer, [13 x i8] c"\F3\0F\1E\FAH\83\EC\08H\83\C4\08\C3" }>, [2551 x i8] zeroinitializer, %seg_402000__rodata_1a_type <{ [8 x i8] c"\01\00\02\003.14", [1 x i8] zeroinitializer, [16 x i8] c"Hello World\00stod", [1 x i8] zeroinitializer, [2 x i8] zeroinitializer, [100 x i8] c"\01\1B\03;`\00\00\00\0B\00\00\00\04\F0\FF\FF\A4\00\00\004\F1\FF\FF\CC\00\00\00t\F1\FF\FFl\01\00\00\84\F1\FF\FF|\00\00\00\B4\F1\FF\FF\90\00\00\00t\F2\FF\FF\AC\01\00\00\E4\F3\FF\FF\EC\00\00\00$\F4\FF\FF\D4\01\00\00D\F5\FF\FF\0C\01\00\00\84\F5\FF\FF,\01\00\00\A4\F5\FF\FFL\01\00\00", [4 x i8] c"\14\00\00\00", [4 x i8] zeroinitializer, [52 x i8] c"\01zR\00\01x\10\01\1B\0C\07\08\90\01\00\00\10\00\00\00\1C\00\00\00\00\F1\FF\FF&\00\00\00\00D\07\10\10\00\00\000\00\00\00\1C\F1\FF\FF\05\00\00\00", [4 x i8] zeroinitializer, [36 x i8] c"$\00\00\00D\00\00\00X\EF\FF\FF0\01\00\00\00\0E\10F\0E\18J\0F\0Bw\08\80\00?\1A;*3$\22", [4 x i8] zeroinitializer, [196 x i8] c"\1C\00\00\00l\00\00\00`\F0\FF\FF;\00\00\00\00A\0E\10\86\02C\0D\06v\0C\07\08\00\00\00\1C\00\00\00\8C\00\00\00\F0\F2\FF\FF?\00\00\00\00A\0E\10\86\02C\0D\06z\0C\07\08\00\00\00\1C\00\00\00\AC\00\00\000\F4\FF\FF2\00\00\00\00A\0E\10\86\02C\0D\06m\0C\07\08\00\00\00\1C\00\00\00\CC\00\00\00P\F4\FF\FF\12\00\00\00\00A\0E\10\86\02C\0D\06M\0C\07\08\00\00\00\1C\00\00\00\EC\00\00\00P\F4\FF\FF;\00\00\00\00A\0E\10\86\02C\0D\06v\0C\07\08\00\00\00\1C\00\00\00\0C\01\00\00\00\F0\FF\FF\0B\00\00\00\00A\0E\10\86\02C\0D\06F\0C\07\08\00\00\00\1C\00\00\00", [4 x i8] zeroinitializer, [104 x i8] c"\01zPLR\00\01x\10\07\03\00\11@\00\03\1B\0C\07\08\90\01\00\00$\00\00\00$\00\00\00\C0\F0\FF\FFc\01\00\00\04\1C\22@\00A\0E\10\86\02C\0D\06\03\06\01\0C\07\08A\0C\06\10\00$\00\00\00L\00\00\00H\F2\FF\FF\15\01\00\00\04<\22@\00A\0E\10\86\02C\0D\06\03\07\01\0C\07\08A\0C\06\10\00", [4 x i8] zeroinitializer, [44 x i8] c"\FF\FF\01\1B\22\12\8B\02\00B\0D\A0\02\00v\15\AC\02\00\99\01H\C1\02\00\E1\01\82\01\00\00\00\FF\FF\01\0A)\94\01_\00\BD\01X", [4 x i8] zeroinitializer }>, [7052 x i8] zeroinitializer, %seg_403dd8__init_array_18_type <{ i8* bitcast (void ()* @frame_dummy to i8*), i8* bitcast (i64 (i64, i64, i64, i64, i64, i64, i64, i64)* @_GLOBAL__sub_I_MotivatingExample.cpp to i8*), i8* bitcast (void ()* @__do_global_dtors_aux to i8*), [4 x i8] c"\01\00\00\00", [4 x i8] zeroinitializer, [4 x i8] c"\01\00\00\00", [4 x i8] zeroinitializer, [4 x i8] c"\01\00\00\00", [4 x i8] zeroinitializer, [4 x i8] c"s\02\00\00", [4 x i8] zeroinitializer, [4 x i8] c"\01\00\00\00", [4 x i8] zeroinitializer, [4 x i8] c"}\02\00\00", [4 x i8] zeroinitializer, [4 x i8] c"\01\00\00\00", [4 x i8] zeroinitializer, [4 x i8] c"\9A\02\00\00", [4 x i8] zeroinitializer, [4 x i8] c"\0C\00\00\00", [4 x i8] zeroinitializer, [4 x i8] c"\00\10@\00", [4 x i8] zeroinitializer, [4 x i8] c"\0D\00\00\00", [4 x i8] zeroinitializer, [4 x i8] c"\FC\15@\00", [4 x i8] zeroinitializer, [4 x i8] c"\19\00\00\00", [4 x i8] zeroinitializer, [4 x i8] c"\D8=@\00", [4 x i8] zeroinitializer, [4 x i8] c"\1B\00\00\00", [4 x i8] zeroinitializer, [4 x i8] c"\10\00\00\00", [4 x i8] zeroinitializer, [4 x i8] c"\1A\00\00\00", [4 x i8] zeroinitializer, [4 x i8] c"\E8=@\00", [4 x i8] zeroinitializer, [4 x i8] c"\1C\00\00\00", [4 x i8] zeroinitializer, [4 x i8] c"\08\00\00\00", [4 x i8] zeroinitializer, [4 x i8] c"\F5\FE\FFo", [4 x i8] zeroinitializer, [4 x i8] c"\A0\03@\00", [4 x i8] zeroinitializer, [4 x i8] c"\05\00\00\00", [4 x i8] zeroinitializer, [4 x i8] c"\E8\05@\00", [4 x i8] zeroinitializer, [4 x i8] c"\06\00\00\00", [4 x i8] zeroinitializer, [4 x i8] c"\D8\03@\00", [4 x i8] zeroinitializer, [4 x i8] c"\0A\00\00\00", [4 x i8] zeroinitializer, [4 x i8] c" \03\00\00", [4 x i8] zeroinitializer, [4 x i8] c"\0B\00\00\00", [4 x i8] zeroinitializer, [4 x i8] c"\18\00\00\00", [4 x i8] zeroinitializer, [4 x i8] c"\15\00\00\00", [12 x i8] zeroinitializer, [4 x i8] c"\03\00\00\00", [4 x i8] zeroinitializer, [4 x i8] c"\00@@\00", [4 x i8] zeroinitializer, [4 x i8] c"\02\00\00\00", [4 x i8] zeroinitializer, [4 x i8] c"\B0\01\00\00", [4 x i8] zeroinitializer, [4 x i8] c"\14\00\00\00", [4 x i8] zeroinitializer, [4 x i8] c"\07\00\00\00", [4 x i8] zeroinitializer, [4 x i8] c"\17\00\00\00", [4 x i8] zeroinitializer, [4 x i8] c"\10\0A@\00", [4 x i8] zeroinitializer, [4 x i8] c"\07\00\00\00", [4 x i8] zeroinitializer, [4 x i8] c"\C8\09@\00", [4 x i8] zeroinitializer, [4 x i8] c"\08\00\00\00", [4 x i8] zeroinitializer, [4 x i8] c"H\00\00\00", [4 x i8] zeroinitializer, [4 x i8] c"\09\00\00\00", [4 x i8] zeroinitializer, [4 x i8] c"\18\00\00\00", [4 x i8] zeroinitializer, [4 x i8] c"\FE\FF\FFo", [4 x i8] zeroinitializer, [4 x i8] c"8\09@\00", [4 x i8] zeroinitializer, [4 x i8] c"\FF\FF\FFo", [4 x i8] zeroinitializer, [4 x i8] c"\03\00\00\00", [4 x i8] zeroinitializer, [4 x i8] c"\F0\FF\FFo", [4 x i8] zeroinitializer, [4 x i8] c"\08\09@\00", [100 x i8] zeroinitializer, i8* bitcast (void (i32 (i32, i8**, i8**)*, i32, i8**, i8*, i32 (i32, i8**, i8**)*, void ()*, void ()*, i32*)* @__libc_start_main to i8*), i8* bitcast (void ()* @__gmon_start__ to i8*), [4 x i8] c"\F0=@\00", [20 x i8] zeroinitializer, i8* bitcast (i64 ()* @__errno_location to i8*), i8* bitcast (i64 (...)* @_ZNKSt7__cxx1112basic_stringIcSt11char_traitsIcESaIcEE5c_strEv to i8*), i8* bitcast (i64 (i64, i64)* @_ZSt4endlIcSt11char_traitsIcEERSt13basic_ostreamIT_T0_ES6_ to i8*), i8* bitcast (i64 (...)* @_ZSt24__throw_invalid_argumentPKc to i8*), i8* bitcast (i64 (...)* @_ZNSt7__cxx1112basic_stringIcSt11char_traitsIcESaIcEED1Ev to i8*), i8* bitcast (i64 (i64, i64)* @strtod to i8*), i8* bitcast (i64 (i64, i64, i64)* @__cxa_atexit to i8*), i8* bitcast (i64 (...)* @_ZStlsIcSt11char_traitsIcESaIcEERSt13basic_ostreamIT_T0_ES7_RKNSt7__cxx1112basic_stringIS4_S5_T1_EE to i8*), i8* bitcast (i64 (i64, i64)* @_ZNSolsEPFRSoS_E to i8*), i8* bitcast (i64 (i64)* @_ZNSaIcED1Ev to i8*), i8* bitcast (i64 (...)* @_ZNSt7__cxx1112basic_stringIcSt11char_traitsIcESaIcEEC1EPKcRKS3_ to i8*), i8* bitcast (i64 (...)* @_ZSt20__throw_out_of_rangePKc to i8*), i8* bitcast (i64 (i64)* @_ZNSt8ios_base4InitC1Ev to i8*), i8* bitcast (i64 ()* @__gxx_personality_v0 to i8*), i8* bitcast (i64 (i64)* @_Unwind_Resume to i8*), i8* bitcast (i64 (i64)* @_ZNSaIcEC1Ev to i8*), i8* bitcast (i64 (...)* @_ZNSt7__cxx1112basic_stringIcSt11char_traitsIcESaIcEE6insertEmmc to i8*), i8* bitcast (i64 (i64)* @_ZNSt8ios_base4InitD1Ev to i8*), [16 x i8] zeroinitializer, [8 x i8] zeroinitializer, [280 x i8] zeroinitializer, [1 x i8] zeroinitializer }> }>, section ".section_400000"

@data_4015f0 = internal alias i8, getelementptr inbounds (<{ %seg_400000_LOAD_bc0_type, [1088 x i8], %seg_401000__init_1b_type, [2551 x i8], %seg_402000__rodata_1a_type, [7052 x i8], %seg_403dd8__init_array_18_type }>, <{ %seg_400000_LOAD_bc0_type, [1088 x i8], %seg_401000__init_1b_type, [2551 x i8], %seg_402000__rodata_1a_type, [7052 x i8], %seg_403dd8__init_array_18_type }>* @__mcsema_all_segments, i32 0, i32 2, i32 35, i32 52)
@data_4015d9 = internal alias i8, getelementptr inbounds (<{ %seg_400000_LOAD_bc0_type, [1088 x i8], %seg_401000__init_1b_type, [2551 x i8], %seg_402000__rodata_1a_type, [7052 x i8], %seg_403dd8__init_array_18_type }>, <{ %seg_400000_LOAD_bc0_type, [1088 x i8], %seg_401000__init_1b_type, [2551 x i8], %seg_402000__rodata_1a_type, [7052 x i8], %seg_403dd8__init_array_18_type }>* @__mcsema_all_segments, i32 0, i32 2, i32 35, i32 29)
@data_401586 = internal alias i8, getelementptr inbounds (<{ %seg_400000_LOAD_bc0_type, [1088 x i8], %seg_401000__init_1b_type, [2551 x i8], %seg_402000__rodata_1a_type, [7052 x i8], %seg_403dd8__init_array_18_type }>, <{ %seg_400000_LOAD_bc0_type, [1088 x i8], %seg_401000__init_1b_type, [2551 x i8], %seg_402000__rodata_1a_type, [7052 x i8], %seg_403dd8__init_array_18_type }>* @__mcsema_all_segments, i32 0, i32 2, i32 29, i32 162)
@data_401579 = internal alias i8, getelementptr inbounds (<{ %seg_400000_LOAD_bc0_type, [1088 x i8], %seg_401000__init_1b_type, [2551 x i8], %seg_402000__rodata_1a_type, [7052 x i8], %seg_403dd8__init_array_18_type }>, <{ %seg_400000_LOAD_bc0_type, [1088 x i8], %seg_401000__init_1b_type, [2551 x i8], %seg_402000__rodata_1a_type, [7052 x i8], %seg_403dd8__init_array_18_type }>* @__mcsema_all_segments, i32 0, i32 2, i32 29, i32 149)
@data_40102c = internal alias i8, getelementptr inbounds (<{ %seg_400000_LOAD_bc0_type, [1088 x i8], %seg_401000__init_1b_type, [2551 x i8], %seg_402000__rodata_1a_type, [7052 x i8], %seg_403dd8__init_array_18_type }>, <{ %seg_400000_LOAD_bc0_type, [1088 x i8], %seg_401000__init_1b_type, [2551 x i8], %seg_402000__rodata_1a_type, [7052 x i8], %seg_403dd8__init_array_18_type }>* @__mcsema_all_segments, i32 0, i32 2, i32 2, i32 12)
@data_404010 = internal alias i8, getelementptr inbounds (<{ %seg_400000_LOAD_bc0_type, [1088 x i8], %seg_401000__init_1b_type, [2551 x i8], %seg_402000__rodata_1a_type, [7052 x i8], %seg_403dd8__init_array_18_type }>, <{ %seg_400000_LOAD_bc0_type, [1088 x i8], %seg_401000__init_1b_type, [2551 x i8], %seg_402000__rodata_1a_type, [7052 x i8], %seg_403dd8__init_array_18_type }>* @__mcsema_all_segments, i32 0, i32 6, i32 108, i32 12)
@data_404008 = internal alias i8, getelementptr inbounds (<{ %seg_400000_LOAD_bc0_type, [1088 x i8], %seg_401000__init_1b_type, [2551 x i8], %seg_402000__rodata_1a_type, [7052 x i8], %seg_403dd8__init_array_18_type }>, <{ %seg_400000_LOAD_bc0_type, [1088 x i8], %seg_401000__init_1b_type, [2551 x i8], %seg_402000__rodata_1a_type, [7052 x i8], %seg_403dd8__init_array_18_type }>* @__mcsema_all_segments, i32 0, i32 6, i32 108, i32 4)
@data_401189 = internal alias i8, getelementptr inbounds (<{ %seg_400000_LOAD_bc0_type, [1088 x i8], %seg_401000__init_1b_type, [2551 x i8], %seg_402000__rodata_1a_type, [7052 x i8], %seg_403dd8__init_array_18_type }>, <{ %seg_400000_LOAD_bc0_type, [1088 x i8], %seg_401000__init_1b_type, [2551 x i8], %seg_402000__rodata_1a_type, [7052 x i8], %seg_403dd8__init_array_18_type }>* @__mcsema_all_segments, i32 0, i32 2, i32 7, i32 5)
@data_4040b0 = internal alias i8, getelementptr inbounds (<{ %seg_400000_LOAD_bc0_type, [1088 x i8], %seg_401000__init_1b_type, [2551 x i8], %seg_402000__rodata_1a_type, [7052 x i8], %seg_403dd8__init_array_18_type }>, <{ %seg_400000_LOAD_bc0_type, [1088 x i8], %seg_401000__init_1b_type, [2551 x i8], %seg_402000__rodata_1a_type, [7052 x i8], %seg_403dd8__init_array_18_type }>* @__mcsema_all_segments, i32 0, i32 6, i32 127, i32 8)
@data_401163 = internal alias i8, getelementptr inbounds (<{ %seg_400000_LOAD_bc0_type, [1088 x i8], %seg_401000__init_1b_type, [2551 x i8], %seg_402000__rodata_1a_type, [7052 x i8], %seg_403dd8__init_array_18_type }>, <{ %seg_400000_LOAD_bc0_type, [1088 x i8], %seg_401000__init_1b_type, [2551 x i8], %seg_402000__rodata_1a_type, [7052 x i8], %seg_403dd8__init_array_18_type }>* @__mcsema_all_segments, i32 0, i32 2, i32 3, i32 19)
@data_4041d1 = internal alias i8, getelementptr inbounds (<{ %seg_400000_LOAD_bc0_type, [1088 x i8], %seg_401000__init_1b_type, [2551 x i8], %seg_402000__rodata_1a_type, [7052 x i8], %seg_403dd8__init_array_18_type }>, <{ %seg_400000_LOAD_bc0_type, [1088 x i8], %seg_401000__init_1b_type, [2551 x i8], %seg_402000__rodata_1a_type, [7052 x i8], %seg_403dd8__init_array_18_type }>* @__mcsema_all_segments, i32 0, i32 6, i32 129, i32 273)
@data_401199 = internal alias i8, getelementptr inbounds (<{ %seg_400000_LOAD_bc0_type, [1088 x i8], %seg_401000__init_1b_type, [2551 x i8], %seg_402000__rodata_1a_type, [7052 x i8], %seg_403dd8__init_array_18_type }>, <{ %seg_400000_LOAD_bc0_type, [1088 x i8], %seg_401000__init_1b_type, [2551 x i8], %seg_402000__rodata_1a_type, [7052 x i8], %seg_403dd8__init_array_18_type }>* @__mcsema_all_segments, i32 0, i32 2, i32 7, i32 21)
@data_4011c5 = internal alias i8, getelementptr inbounds (<{ %seg_400000_LOAD_bc0_type, [1088 x i8], %seg_401000__init_1b_type, [2551 x i8], %seg_402000__rodata_1a_type, [7052 x i8], %seg_403dd8__init_array_18_type }>, <{ %seg_400000_LOAD_bc0_type, [1088 x i8], %seg_401000__init_1b_type, [2551 x i8], %seg_402000__rodata_1a_type, [7052 x i8], %seg_403dd8__init_array_18_type }>* @__mcsema_all_segments, i32 0, i32 2, i32 7, i32 65)
@data_403ff0 = internal alias i8*, getelementptr inbounds (<{ %seg_400000_LOAD_bc0_type, [1088 x i8], %seg_401000__init_1b_type, [2551 x i8], %seg_402000__rodata_1a_type, [7052 x i8], %seg_403dd8__init_array_18_type }>, <{ %seg_400000_LOAD_bc0_type, [1088 x i8], %seg_401000__init_1b_type, [2551 x i8], %seg_402000__rodata_1a_type, [7052 x i8], %seg_403dd8__init_array_18_type }>* @__mcsema_all_segments, i32 0, i32 6, i32 105)
@data_401201 = internal alias i8, getelementptr inbounds (<{ %seg_400000_LOAD_bc0_type, [1088 x i8], %seg_401000__init_1b_type, [2551 x i8], %seg_402000__rodata_1a_type, [7052 x i8], %seg_403dd8__init_array_18_type }>, <{ %seg_400000_LOAD_bc0_type, [1088 x i8], %seg_401000__init_1b_type, [2551 x i8], %seg_402000__rodata_1a_type, [7052 x i8], %seg_403dd8__init_array_18_type }>* @__mcsema_all_segments, i32 0, i32 2, i32 9, i32 49)
@data_401439 = internal alias i8, getelementptr inbounds (<{ %seg_400000_LOAD_bc0_type, [1088 x i8], %seg_401000__init_1b_type, [2551 x i8], %seg_402000__rodata_1a_type, [7052 x i8], %seg_403dd8__init_array_18_type }>, <{ %seg_400000_LOAD_bc0_type, [1088 x i8], %seg_401000__init_1b_type, [2551 x i8], %seg_402000__rodata_1a_type, [7052 x i8], %seg_403dd8__init_array_18_type }>* @__mcsema_all_segments, i32 0, i32 2, i32 27, i32 9)
@data_402015 = internal alias i8, getelementptr inbounds (<{ %seg_400000_LOAD_bc0_type, [1088 x i8], %seg_401000__init_1b_type, [2551 x i8], %seg_402000__rodata_1a_type, [7052 x i8], %seg_403dd8__init_array_18_type }>, <{ %seg_400000_LOAD_bc0_type, [1088 x i8], %seg_401000__init_1b_type, [2551 x i8], %seg_402000__rodata_1a_type, [7052 x i8], %seg_403dd8__init_array_18_type }>* @__mcsema_all_segments, i32 0, i32 4, i32 2, i32 12)
@data_401419 = internal alias i8, getelementptr inbounds (<{ %seg_400000_LOAD_bc0_type, [1088 x i8], %seg_401000__init_1b_type, [2551 x i8], %seg_402000__rodata_1a_type, [7052 x i8], %seg_403dd8__init_array_18_type }>, <{ %seg_400000_LOAD_bc0_type, [1088 x i8], %seg_401000__init_1b_type, [2551 x i8], %seg_402000__rodata_1a_type, [7052 x i8], %seg_403dd8__init_array_18_type }>* @__mcsema_all_segments, i32 0, i32 2, i32 25, i32 29)
@data_401241 = internal alias i8, getelementptr inbounds (<{ %seg_400000_LOAD_bc0_type, [1088 x i8], %seg_401000__init_1b_type, [2551 x i8], %seg_402000__rodata_1a_type, [7052 x i8], %seg_403dd8__init_array_18_type }>, <{ %seg_400000_LOAD_bc0_type, [1088 x i8], %seg_401000__init_1b_type, [2551 x i8], %seg_402000__rodata_1a_type, [7052 x i8], %seg_403dd8__init_array_18_type }>* @__mcsema_all_segments, i32 0, i32 2, i32 13, i32 13)
@data_401016 = internal alias i8, getelementptr inbounds (<{ %seg_400000_LOAD_bc0_type, [1088 x i8], %seg_401000__init_1b_type, [2551 x i8], %seg_402000__rodata_1a_type, [7052 x i8], %seg_403dd8__init_array_18_type }>, <{ %seg_400000_LOAD_bc0_type, [1088 x i8], %seg_401000__init_1b_type, [2551 x i8], %seg_402000__rodata_1a_type, [7052 x i8], %seg_403dd8__init_array_18_type }>* @__mcsema_all_segments, i32 0, i32 2, i32 0, i32 22)
@data_403ff8 = internal alias i8*, getelementptr inbounds (<{ %seg_400000_LOAD_bc0_type, [1088 x i8], %seg_401000__init_1b_type, [2551 x i8], %seg_402000__rodata_1a_type, [7052 x i8], %seg_403dd8__init_array_18_type }>, <{ %seg_400000_LOAD_bc0_type, [1088 x i8], %seg_401000__init_1b_type, [2551 x i8], %seg_402000__rodata_1a_type, [7052 x i8], %seg_403dd8__init_array_18_type }>* @__mcsema_all_segments, i32 0, i32 6, i32 106)
@data_401266 = internal alias i8, getelementptr inbounds (<{ %seg_400000_LOAD_bc0_type, [1088 x i8], %seg_401000__init_1b_type, [2551 x i8], %seg_402000__rodata_1a_type, [7052 x i8], %seg_403dd8__init_array_18_type }>, <{ %seg_400000_LOAD_bc0_type, [1088 x i8], %seg_401000__init_1b_type, [2551 x i8], %seg_402000__rodata_1a_type, [7052 x i8], %seg_403dd8__init_array_18_type }>* @__mcsema_all_segments, i32 0, i32 2, i32 15, i32 26)
@data_4041d0 = internal alias i8, getelementptr inbounds (<{ %seg_400000_LOAD_bc0_type, [1088 x i8], %seg_401000__init_1b_type, [2551 x i8], %seg_402000__rodata_1a_type, [7052 x i8], %seg_403dd8__init_array_18_type }>, <{ %seg_400000_LOAD_bc0_type, [1088 x i8], %seg_401000__init_1b_type, [2551 x i8], %seg_402000__rodata_1a_type, [7052 x i8], %seg_403dd8__init_array_18_type }>* @__mcsema_all_segments, i32 0, i32 6, i32 129, i32 272)
@data_4013f3 = internal alias i8, getelementptr inbounds (<{ %seg_400000_LOAD_bc0_type, [1088 x i8], %seg_401000__init_1b_type, [2551 x i8], %seg_402000__rodata_1a_type, [7052 x i8], %seg_403dd8__init_array_18_type }>, <{ %seg_400000_LOAD_bc0_type, [1088 x i8], %seg_401000__init_1b_type, [2551 x i8], %seg_402000__rodata_1a_type, [7052 x i8], %seg_403dd8__init_array_18_type }>* @__mcsema_all_segments, i32 0, i32 2, i32 23, i32 147)
@data_4013ea = internal alias i8, getelementptr inbounds (<{ %seg_400000_LOAD_bc0_type, [1088 x i8], %seg_401000__init_1b_type, [2551 x i8], %seg_402000__rodata_1a_type, [7052 x i8], %seg_403dd8__init_array_18_type }>, <{ %seg_400000_LOAD_bc0_type, [1088 x i8], %seg_401000__init_1b_type, [2551 x i8], %seg_402000__rodata_1a_type, [7052 x i8], %seg_403dd8__init_array_18_type }>* @__mcsema_all_segments, i32 0, i32 2, i32 23, i32 138)
@data_4013e1 = internal alias i8, getelementptr inbounds (<{ %seg_400000_LOAD_bc0_type, [1088 x i8], %seg_401000__init_1b_type, [2551 x i8], %seg_402000__rodata_1a_type, [7052 x i8], %seg_403dd8__init_array_18_type }>, <{ %seg_400000_LOAD_bc0_type, [1088 x i8], %seg_401000__init_1b_type, [2551 x i8], %seg_402000__rodata_1a_type, [7052 x i8], %seg_403dd8__init_array_18_type }>* @__mcsema_all_segments, i32 0, i32 2, i32 23, i32 129)
@data_4013cc = internal alias i8, getelementptr inbounds (<{ %seg_400000_LOAD_bc0_type, [1088 x i8], %seg_401000__init_1b_type, [2551 x i8], %seg_402000__rodata_1a_type, [7052 x i8], %seg_403dd8__init_array_18_type }>, <{ %seg_400000_LOAD_bc0_type, [1088 x i8], %seg_401000__init_1b_type, [2551 x i8], %seg_402000__rodata_1a_type, [7052 x i8], %seg_403dd8__init_array_18_type }>* @__mcsema_all_segments, i32 0, i32 2, i32 23, i32 108)
@data_4013ab = internal alias i8, getelementptr inbounds (<{ %seg_400000_LOAD_bc0_type, [1088 x i8], %seg_401000__init_1b_type, [2551 x i8], %seg_402000__rodata_1a_type, [7052 x i8], %seg_403dd8__init_array_18_type }>, <{ %seg_400000_LOAD_bc0_type, [1088 x i8], %seg_401000__init_1b_type, [2551 x i8], %seg_402000__rodata_1a_type, [7052 x i8], %seg_403dd8__init_array_18_type }>* @__mcsema_all_segments, i32 0, i32 2, i32 23, i32 75)
@data_40138f = internal alias i8, getelementptr inbounds (<{ %seg_400000_LOAD_bc0_type, [1088 x i8], %seg_401000__init_1b_type, [2551 x i8], %seg_402000__rodata_1a_type, [7052 x i8], %seg_403dd8__init_array_18_type }>, <{ %seg_400000_LOAD_bc0_type, [1088 x i8], %seg_401000__init_1b_type, [2551 x i8], %seg_402000__rodata_1a_type, [7052 x i8], %seg_403dd8__init_array_18_type }>* @__mcsema_all_segments, i32 0, i32 2, i32 23, i32 47)
@data_401386 = internal alias i8, getelementptr inbounds (<{ %seg_400000_LOAD_bc0_type, [1088 x i8], %seg_401000__init_1b_type, [2551 x i8], %seg_402000__rodata_1a_type, [7052 x i8], %seg_403dd8__init_array_18_type }>, <{ %seg_400000_LOAD_bc0_type, [1088 x i8], %seg_401000__init_1b_type, [2551 x i8], %seg_402000__rodata_1a_type, [7052 x i8], %seg_403dd8__init_array_18_type }>* @__mcsema_all_segments, i32 0, i32 2, i32 23, i32 38)
@data_401371 = internal alias i8, getelementptr inbounds (<{ %seg_400000_LOAD_bc0_type, [1088 x i8], %seg_401000__init_1b_type, [2551 x i8], %seg_402000__rodata_1a_type, [7052 x i8], %seg_403dd8__init_array_18_type }>, <{ %seg_400000_LOAD_bc0_type, [1088 x i8], %seg_401000__init_1b_type, [2551 x i8], %seg_402000__rodata_1a_type, [7052 x i8], %seg_403dd8__init_array_18_type }>* @__mcsema_all_segments, i32 0, i32 2, i32 23, i32 17)
@data_401354 = internal alias i8, getelementptr inbounds (<{ %seg_400000_LOAD_bc0_type, [1088 x i8], %seg_401000__init_1b_type, [2551 x i8], %seg_402000__rodata_1a_type, [7052 x i8], %seg_403dd8__init_array_18_type }>, <{ %seg_400000_LOAD_bc0_type, [1088 x i8], %seg_401000__init_1b_type, [2551 x i8], %seg_402000__rodata_1a_type, [7052 x i8], %seg_403dd8__init_array_18_type }>* @__mcsema_all_segments, i32 0, i32 2, i32 21, i32 52)
@data_401341 = internal alias i8, getelementptr inbounds (<{ %seg_400000_LOAD_bc0_type, [1088 x i8], %seg_401000__init_1b_type, [2551 x i8], %seg_402000__rodata_1a_type, [7052 x i8], %seg_403dd8__init_array_18_type }>, <{ %seg_400000_LOAD_bc0_type, [1088 x i8], %seg_401000__init_1b_type, [2551 x i8], %seg_402000__rodata_1a_type, [7052 x i8], %seg_403dd8__init_array_18_type }>* @__mcsema_all_segments, i32 0, i32 2, i32 21, i32 33)
@data_401329 = internal alias i8, getelementptr inbounds (<{ %seg_400000_LOAD_bc0_type, [1088 x i8], %seg_401000__init_1b_type, [2551 x i8], %seg_402000__rodata_1a_type, [7052 x i8], %seg_403dd8__init_array_18_type }>, <{ %seg_400000_LOAD_bc0_type, [1088 x i8], %seg_401000__init_1b_type, [2551 x i8], %seg_402000__rodata_1a_type, [7052 x i8], %seg_403dd8__init_array_18_type }>* @__mcsema_all_segments, i32 0, i32 2, i32 21, i32 9)
@data_40131b = internal alias i8, getelementptr inbounds (<{ %seg_400000_LOAD_bc0_type, [1088 x i8], %seg_401000__init_1b_type, [2551 x i8], %seg_402000__rodata_1a_type, [7052 x i8], %seg_403dd8__init_array_18_type }>, <{ %seg_400000_LOAD_bc0_type, [1088 x i8], %seg_401000__init_1b_type, [2551 x i8], %seg_402000__rodata_1a_type, [7052 x i8], %seg_403dd8__init_array_18_type }>* @__mcsema_all_segments, i32 0, i32 2, i32 19, i32 139)
@data_401306 = internal alias i8, getelementptr inbounds (<{ %seg_400000_LOAD_bc0_type, [1088 x i8], %seg_401000__init_1b_type, [2551 x i8], %seg_402000__rodata_1a_type, [7052 x i8], %seg_403dd8__init_array_18_type }>, <{ %seg_400000_LOAD_bc0_type, [1088 x i8], %seg_401000__init_1b_type, [2551 x i8], %seg_402000__rodata_1a_type, [7052 x i8], %seg_403dd8__init_array_18_type }>* @__mcsema_all_segments, i32 0, i32 2, i32 19, i32 118)
@data_4012df = internal alias i8, getelementptr inbounds (<{ %seg_400000_LOAD_bc0_type, [1088 x i8], %seg_401000__init_1b_type, [2551 x i8], %seg_402000__rodata_1a_type, [7052 x i8], %seg_403dd8__init_array_18_type }>, <{ %seg_400000_LOAD_bc0_type, [1088 x i8], %seg_401000__init_1b_type, [2551 x i8], %seg_402000__rodata_1a_type, [7052 x i8], %seg_403dd8__init_array_18_type }>* @__mcsema_all_segments, i32 0, i32 2, i32 19, i32 79)
@data_4012d2 = internal alias i8, getelementptr inbounds (<{ %seg_400000_LOAD_bc0_type, [1088 x i8], %seg_401000__init_1b_type, [2551 x i8], %seg_402000__rodata_1a_type, [7052 x i8], %seg_403dd8__init_array_18_type }>, <{ %seg_400000_LOAD_bc0_type, [1088 x i8], %seg_401000__init_1b_type, [2551 x i8], %seg_402000__rodata_1a_type, [7052 x i8], %seg_403dd8__init_array_18_type }>* @__mcsema_all_segments, i32 0, i32 2, i32 19, i32 66)
@data_4012c4 = internal alias i8, getelementptr inbounds (<{ %seg_400000_LOAD_bc0_type, [1088 x i8], %seg_401000__init_1b_type, [2551 x i8], %seg_402000__rodata_1a_type, [7052 x i8], %seg_403dd8__init_array_18_type }>, <{ %seg_400000_LOAD_bc0_type, [1088 x i8], %seg_401000__init_1b_type, [2551 x i8], %seg_402000__rodata_1a_type, [7052 x i8], %seg_403dd8__init_array_18_type }>* @__mcsema_all_segments, i32 0, i32 2, i32 19, i32 52)
@data_4012b2 = internal alias i8, getelementptr inbounds (<{ %seg_400000_LOAD_bc0_type, [1088 x i8], %seg_401000__init_1b_type, [2551 x i8], %seg_402000__rodata_1a_type, [7052 x i8], %seg_403dd8__init_array_18_type }>, <{ %seg_400000_LOAD_bc0_type, [1088 x i8], %seg_401000__init_1b_type, [2551 x i8], %seg_402000__rodata_1a_type, [7052 x i8], %seg_403dd8__init_array_18_type }>* @__mcsema_all_segments, i32 0, i32 2, i32 19, i32 34)
@data_401555 = internal alias i8, getelementptr inbounds (<{ %seg_400000_LOAD_bc0_type, [1088 x i8], %seg_401000__init_1b_type, [2551 x i8], %seg_402000__rodata_1a_type, [7052 x i8], %seg_403dd8__init_array_18_type }>, <{ %seg_400000_LOAD_bc0_type, [1088 x i8], %seg_401000__init_1b_type, [2551 x i8], %seg_402000__rodata_1a_type, [7052 x i8], %seg_403dd8__init_array_18_type }>* @__mcsema_all_segments, i32 0, i32 2, i32 29, i32 113)
@data_401541 = internal alias i8, getelementptr inbounds (<{ %seg_400000_LOAD_bc0_type, [1088 x i8], %seg_401000__init_1b_type, [2551 x i8], %seg_402000__rodata_1a_type, [7052 x i8], %seg_403dd8__init_array_18_type }>, <{ %seg_400000_LOAD_bc0_type, [1088 x i8], %seg_401000__init_1b_type, [2551 x i8], %seg_402000__rodata_1a_type, [7052 x i8], %seg_403dd8__init_array_18_type }>* @__mcsema_all_segments, i32 0, i32 2, i32 29, i32 93)
@data_4014fd = internal alias i8, getelementptr inbounds (<{ %seg_400000_LOAD_bc0_type, [1088 x i8], %seg_401000__init_1b_type, [2551 x i8], %seg_402000__rodata_1a_type, [7052 x i8], %seg_403dd8__init_array_18_type }>, <{ %seg_400000_LOAD_bc0_type, [1088 x i8], %seg_401000__init_1b_type, [2551 x i8], %seg_402000__rodata_1a_type, [7052 x i8], %seg_403dd8__init_array_18_type }>* @__mcsema_all_segments, i32 0, i32 2, i32 29, i32 25)
@data_4014d1 = internal alias i8, getelementptr inbounds (<{ %seg_400000_LOAD_bc0_type, [1088 x i8], %seg_401000__init_1b_type, [2551 x i8], %seg_402000__rodata_1a_type, [7052 x i8], %seg_403dd8__init_array_18_type }>, <{ %seg_400000_LOAD_bc0_type, [1088 x i8], %seg_401000__init_1b_type, [2551 x i8], %seg_402000__rodata_1a_type, [7052 x i8], %seg_403dd8__init_array_18_type }>* @__mcsema_all_segments, i32 0, i32 2, i32 27, i32 161)
@data_4014b9 = internal alias i8, getelementptr inbounds (<{ %seg_400000_LOAD_bc0_type, [1088 x i8], %seg_401000__init_1b_type, [2551 x i8], %seg_402000__rodata_1a_type, [7052 x i8], %seg_403dd8__init_array_18_type }>, <{ %seg_400000_LOAD_bc0_type, [1088 x i8], %seg_401000__init_1b_type, [2551 x i8], %seg_402000__rodata_1a_type, [7052 x i8], %seg_403dd8__init_array_18_type }>* @__mcsema_all_segments, i32 0, i32 2, i32 27, i32 137)
@data_4014af = internal alias i8, getelementptr inbounds (<{ %seg_400000_LOAD_bc0_type, [1088 x i8], %seg_401000__init_1b_type, [2551 x i8], %seg_402000__rodata_1a_type, [7052 x i8], %seg_403dd8__init_array_18_type }>, <{ %seg_400000_LOAD_bc0_type, [1088 x i8], %seg_401000__init_1b_type, [2551 x i8], %seg_402000__rodata_1a_type, [7052 x i8], %seg_403dd8__init_array_18_type }>* @__mcsema_all_segments, i32 0, i32 2, i32 27, i32 127)
@data_40149a = internal alias i8, getelementptr inbounds (<{ %seg_400000_LOAD_bc0_type, [1088 x i8], %seg_401000__init_1b_type, [2551 x i8], %seg_402000__rodata_1a_type, [7052 x i8], %seg_403dd8__init_array_18_type }>, <{ %seg_400000_LOAD_bc0_type, [1088 x i8], %seg_401000__init_1b_type, [2551 x i8], %seg_402000__rodata_1a_type, [7052 x i8], %seg_403dd8__init_array_18_type }>* @__mcsema_all_segments, i32 0, i32 2, i32 27, i32 106)
@data_40146f = internal alias i8, getelementptr inbounds (<{ %seg_400000_LOAD_bc0_type, [1088 x i8], %seg_401000__init_1b_type, [2551 x i8], %seg_402000__rodata_1a_type, [7052 x i8], %seg_403dd8__init_array_18_type }>, <{ %seg_400000_LOAD_bc0_type, [1088 x i8], %seg_401000__init_1b_type, [2551 x i8], %seg_402000__rodata_1a_type, [7052 x i8], %seg_403dd8__init_array_18_type }>* @__mcsema_all_segments, i32 0, i32 2, i32 27, i32 63)
@data_401461 = internal alias i8, getelementptr inbounds (<{ %seg_400000_LOAD_bc0_type, [1088 x i8], %seg_401000__init_1b_type, [2551 x i8], %seg_402000__rodata_1a_type, [7052 x i8], %seg_403dd8__init_array_18_type }>, <{ %seg_400000_LOAD_bc0_type, [1088 x i8], %seg_401000__init_1b_type, [2551 x i8], %seg_402000__rodata_1a_type, [7052 x i8], %seg_403dd8__init_array_18_type }>* @__mcsema_all_segments, i32 0, i32 2, i32 27, i32 49)
@data_402009 = internal alias i8, getelementptr inbounds (<{ %seg_400000_LOAD_bc0_type, [1088 x i8], %seg_401000__init_1b_type, [2551 x i8], %seg_402000__rodata_1a_type, [7052 x i8], %seg_403dd8__init_array_18_type }>, <{ %seg_400000_LOAD_bc0_type, [1088 x i8], %seg_401000__init_1b_type, [2551 x i8], %seg_402000__rodata_1a_type, [7052 x i8], %seg_403dd8__init_array_18_type }>* @__mcsema_all_segments, i32 0, i32 4, i32 2, i32 0)
@data_402004 = internal alias i8, getelementptr inbounds (<{ %seg_400000_LOAD_bc0_type, [1088 x i8], %seg_401000__init_1b_type, [2551 x i8], %seg_402000__rodata_1a_type, [7052 x i8], %seg_403dd8__init_array_18_type }>, <{ %seg_400000_LOAD_bc0_type, [1088 x i8], %seg_401000__init_1b_type, [2551 x i8], %seg_402000__rodata_1a_type, [7052 x i8], %seg_403dd8__init_array_18_type }>* @__mcsema_all_segments, i32 0, i32 4, i32 0, i32 4)
@data_402000 = internal alias i8, getelementptr inbounds (<{ %seg_400000_LOAD_bc0_type, [1088 x i8], %seg_401000__init_1b_type, [2551 x i8], %seg_402000__rodata_1a_type, [7052 x i8], %seg_403dd8__init_array_18_type }>, <{ %seg_400000_LOAD_bc0_type, [1088 x i8], %seg_401000__init_1b_type, [2551 x i8], %seg_402000__rodata_1a_type, [7052 x i8], %seg_403dd8__init_array_18_type }>* @__mcsema_all_segments, i32 0, i32 4, i32 0, i32 0)
@data_403dd8 = internal alias i8*, getelementptr inbounds (<{ %seg_400000_LOAD_bc0_type, [1088 x i8], %seg_401000__init_1b_type, [2551 x i8], %seg_402000__rodata_1a_type, [7052 x i8], %seg_403dd8__init_array_18_type }>, <{ %seg_400000_LOAD_bc0_type, [1088 x i8], %seg_401000__init_1b_type, [2551 x i8], %seg_402000__rodata_1a_type, [7052 x i8], %seg_403dd8__init_array_18_type }>* @__mcsema_all_segments, i32 0, i32 6, i32 0)
@data_40201c = internal alias i8, getelementptr inbounds (<{ %seg_400000_LOAD_bc0_type, [1088 x i8], %seg_401000__init_1b_type, [2551 x i8], %seg_402000__rodata_1a_type, [7052 x i8], %seg_403dd8__init_array_18_type }>, <{ %seg_400000_LOAD_bc0_type, [1088 x i8], %seg_401000__init_1b_type, [2551 x i8], %seg_402000__rodata_1a_type, [7052 x i8], %seg_403dd8__init_array_18_type }>* @__mcsema_all_segments, i32 0, i32 4, i32 5, i32 0)
@OF_2077_293d9b8 = private thread_local(initialexec) alias i8, getelementptr inbounds (%struct.State, %struct.State* @__mcsema_reg_state, i32 0, i32 2, i32 13)
@SF_2073_293d9b8 = private thread_local(initialexec) alias i8, getelementptr inbounds (%struct.State, %struct.State* @__mcsema_reg_state, i32 0, i32 2, i32 9)
@ZF_2071_293d9b8 = private thread_local(initialexec) alias i8, getelementptr inbounds (%struct.State, %struct.State* @__mcsema_reg_state, i32 0, i32 2, i32 7)
@AF_2069_293d9b8 = private thread_local(initialexec) alias i8, getelementptr inbounds (%struct.State, %struct.State* @__mcsema_reg_state, i32 0, i32 2, i32 5)
@PF_2067_293d9b8 = private thread_local(initialexec) alias i8, getelementptr inbounds (%struct.State, %struct.State* @__mcsema_reg_state, i32 0, i32 2, i32 3)
@CF_2065_293d9b8 = private thread_local(initialexec) alias i8, getelementptr inbounds (%struct.State, %struct.State* @__mcsema_reg_state, i32 0, i32 2, i32 1)
@RIP_2472_293da00 = private thread_local(initialexec) alias i64, getelementptr inbounds (%struct.State, %struct.State* @__mcsema_reg_state, i32 0, i32 6, i32 33, i32 0, i32 0)
@RSP_2312_293da00 = private thread_local(initialexec) alias i64, getelementptr inbounds (%struct.State, %struct.State* @__mcsema_reg_state, i32 0, i32 6, i32 13, i32 0, i32 0)
@RSP_2312_2948f30 = private thread_local(initialexec) alias i64*, bitcast (i64* getelementptr inbounds (%struct.State, %struct.State* @__mcsema_reg_state, i32 0, i32 6, i32 13, i32 0, i32 0) to i64**)
@RIP_2472_294e750 = private thread_local(initialexec) alias void ()*, bitcast (i64* getelementptr inbounds (%struct.State, %struct.State* @__mcsema_reg_state, i32 0, i32 6, i32 33, i32 0, i32 0) to void ()**)
@RDI_2296_293d9e8 = private thread_local(initialexec) alias i32, bitcast (i64* getelementptr inbounds (%struct.State, %struct.State* @__mcsema_reg_state, i32 0, i32 6, i32 11, i32 0, i32 0) to i32*)
@RDX_2264_293d9e8 = private thread_local(initialexec) alias i32, bitcast (i64* getelementptr inbounds (%struct.State, %struct.State* @__mcsema_reg_state, i32 0, i32 6, i32 7, i32 0, i32 0) to i32*)
@RAX_2216_293da00 = private thread_local(initialexec) alias i64, getelementptr inbounds (%struct.State, %struct.State* @__mcsema_reg_state, i32 0, i32 6, i32 1, i32 0, i32 0)
@R9_2360_293da00 = private thread_local(initialexec) alias i64, getelementptr inbounds (%struct.State, %struct.State* @__mcsema_reg_state, i32 0, i32 6, i32 19, i32 0, i32 0)
@R8_2344_293da00 = private thread_local(initialexec) alias i64, getelementptr inbounds (%struct.State, %struct.State* @__mcsema_reg_state, i32 0, i32 6, i32 17, i32 0, i32 0)
@RCX_2248_293da00 = private thread_local(initialexec) alias i64, getelementptr inbounds (%struct.State, %struct.State* @__mcsema_reg_state, i32 0, i32 6, i32 5, i32 0, i32 0)
@RDX_2264_293da00 = private thread_local(initialexec) alias i64, getelementptr inbounds (%struct.State, %struct.State* @__mcsema_reg_state, i32 0, i32 6, i32 7, i32 0, i32 0)
@RSI_2280_293da00 = private thread_local(initialexec) alias i64, getelementptr inbounds (%struct.State, %struct.State* @__mcsema_reg_state, i32 0, i32 6, i32 9, i32 0, i32 0)
@RDI_2296_293da00 = private thread_local(initialexec) alias i64, getelementptr inbounds (%struct.State, %struct.State* @__mcsema_reg_state, i32 0, i32 6, i32 11, i32 0, i32 0)
@RAX_2216_294e270 = private thread_local(initialexec) alias i32*, bitcast (i64* getelementptr inbounds (%struct.State, %struct.State* @__mcsema_reg_state, i32 0, i32 6, i32 1, i32 0, i32 0) to i32**)
@RCX_2248_2948f30 = private thread_local(initialexec) alias i64*, bitcast (i64* getelementptr inbounds (%struct.State, %struct.State* @__mcsema_reg_state, i32 0, i32 6, i32 5, i32 0, i32 0) to i64**)
@RBP_2328_293da00 = private thread_local(initialexec) alias i64, getelementptr inbounds (%struct.State, %struct.State* @__mcsema_reg_state, i32 0, i32 6, i32 15, i32 0, i32 0)
@RIP_2472_2948dd0 = private thread_local(initialexec) alias i8*, bitcast (i64* getelementptr inbounds (%struct.State, %struct.State* @__mcsema_reg_state, i32 0, i32 6, i32 33, i32 0, i32 0) to i8**)
@RIP_2472_37b0970 = private thread_local(initialexec) alias i64 (i64, i64, i64, i64, i64, i64, i64, i64)*, bitcast (i64* getelementptr inbounds (%struct.State, %struct.State* @__mcsema_reg_state, i32 0, i32 6, i32 33, i32 0, i32 0) to i64 (i64, i64, i64, i64, i64, i64, i64, i64)**)
@RAX_2216_293d9d0 = private thread_local(initialexec) alias i16, bitcast (i64* getelementptr inbounds (%struct.State, %struct.State* @__mcsema_reg_state, i32 0, i32 6, i32 1, i32 0, i32 0) to i16*)
@RAX_2216_293d9b8 = private thread_local(initialexec) alias i8, bitcast (i64* getelementptr inbounds (%struct.State, %struct.State* @__mcsema_reg_state, i32 0, i32 6, i32 1, i32 0, i32 0) to i8*)
@RCX_2248_293d9b8 = private thread_local(initialexec) alias i8, bitcast (i64* getelementptr inbounds (%struct.State, %struct.State* @__mcsema_reg_state, i32 0, i32 6, i32 5, i32 0, i32 0) to i8*)
@XMM0_16_293d8f8 = private thread_local(initialexec) alias double, bitcast (i64* getelementptr inbounds (%struct.State, %struct.State* @__mcsema_reg_state, i32 0, i32 1, i32 0, i32 0, i32 0, i32 0, i32 0) to double*)
@XMM0_24_293d8f8 = private thread_local(initialexec) alias double, bitcast (i64* getelementptr inbounds (%struct.State, %struct.State* @__mcsema_reg_state, i32 0, i32 1, i32 0, i32 0, i32 0, i32 0, i32 1) to double*)
@RSI_2280_2948dd0 = private thread_local(initialexec) alias i8*, bitcast (i64* getelementptr inbounds (%struct.State, %struct.State* @__mcsema_reg_state, i32 0, i32 6, i32 9, i32 0, i32 0) to i8**)
@RSI_2280_37b08d0 = private thread_local(initialexec) alias i64 (i64, i64)*, bitcast (i64* getelementptr inbounds (%struct.State, %struct.State* @__mcsema_reg_state, i32 0, i32 6, i32 9, i32 0, i32 0) to i64 (i64, i64)**)
@RDI_2296_2948dd0 = private thread_local(initialexec) alias i8*, bitcast (i64* getelementptr inbounds (%struct.State, %struct.State* @__mcsema_reg_state, i32 0, i32 6, i32 11, i32 0, i32 0) to i8**)
@RIP_2472_2af2220 = private thread_local(initialexec) alias i32 (i32, i8**, i8**)*, bitcast (i64* getelementptr inbounds (%struct.State, %struct.State* @__mcsema_reg_state, i32 0, i32 6, i32 33, i32 0, i32 0) to i32 (i32, i8**, i8**)**)
@RAX_2216_293d9e8 = private thread_local(initialexec) alias i32, bitcast (i64* getelementptr inbounds (%struct.State, %struct.State* @__mcsema_reg_state, i32 0, i32 6, i32 1, i32 0, i32 0) to i32*)
@RDI_2296_37b08d0 = private thread_local(initialexec) alias i64 (i64, i64)*, bitcast (i64* getelementptr inbounds (%struct.State, %struct.State* @__mcsema_reg_state, i32 0, i32 6, i32 11, i32 0, i32 0) to i64 (i64, i64)**)
@RDI_2296_2af2220 = private thread_local(initialexec) alias i32 (i32, i8**, i8**)*, bitcast (i64* getelementptr inbounds (%struct.State, %struct.State* @__mcsema_reg_state, i32 0, i32 6, i32 11, i32 0, i32 0) to i32 (i32, i8**, i8**)**)
@RCX_2248_293d9e8 = private thread_local(initialexec) alias i32, bitcast (i64* getelementptr inbounds (%struct.State, %struct.State* @__mcsema_reg_state, i32 0, i32 6, i32 5, i32 0, i32 0) to i32*)
@R8_2344_293d9e8 = private thread_local(initialexec) alias i32, bitcast (i64* getelementptr inbounds (%struct.State, %struct.State* @__mcsema_reg_state, i32 0, i32 6, i32 17, i32 0, i32 0) to i32*)
@RBP_2328_293d9e8 = private thread_local(initialexec) alias i32, bitcast (i64* getelementptr inbounds (%struct.State, %struct.State* @__mcsema_reg_state, i32 0, i32 6, i32 15, i32 0, i32 0) to i32*)
@RDX_2264_2948dd0 = private thread_local(initialexec) alias i8*, bitcast (i64* getelementptr inbounds (%struct.State, %struct.State* @__mcsema_reg_state, i32 0, i32 6, i32 7, i32 0, i32 0) to i8**)
@RAX_2216_294cc80 = private thread_local(initialexec) alias i64 (i64)*, bitcast (i64* getelementptr inbounds (%struct.State, %struct.State* @__mcsema_reg_state, i32 0, i32 6, i32 1, i32 0, i32 0) to i64 (i64)**)

declare !remill.function.type !1289 dso_local %struct.Memory* @__remill_sync_hyper_call(%struct.State* nonnull align 16 dereferenceable(3376), %struct.Memory*, i32) #0

; Function Attrs: nounwind readnone speculatable willreturn
declare !remill.function.type !1289 i32 @llvm.ctpop.i32(i32) #1

; Function Attrs: noduplicate noinline nounwind optnone
define dso_local %struct.Memory* @__remill_error(%struct.State* nonnull align 16 dereferenceable(3376) %0, i64 %1, %struct.Memory* %2) #2 !remill.function.type !1289 {
  call void @abort()
  unreachable
}

; Function Attrs: argmemonly nounwind willreturn
declare !remill.function.type !1289 void @llvm.lifetime.start.p0i8(i64 immarg, i8* nocapture) #3

; Function Attrs: argmemonly nounwind willreturn
declare !remill.function.type !1289 void @llvm.lifetime.end.p0i8(i64 immarg, i8* nocapture) #3

; Function Attrs: noduplicate noinline nounwind optnone readnone
declare !remill.function.type !1289 dso_local %struct.Memory* @__remill_barrier_store_load(%struct.Memory*) #4

; Function Attrs: noduplicate noinline nounwind optnone readnone
declare !remill.function.type !1289 dso_local %struct.Memory* @__remill_barrier_store_store(%struct.Memory*) #4

; Function Attrs: noduplicate noinline nounwind optnone readnone
declare !remill.function.type !1289 dso_local %struct.Memory* @__remill_barrier_load_load(%struct.Memory*) #4

; Function Attrs: nounwind readnone
declare !remill.function.type !1289 dso_local i32 @__remill_fpu_exception_test_and_clear(i32, i32) #5

; Function Attrs: noduplicate noinline nounwind optnone readnone
declare !remill.function.type !1289 dso_local %struct.Memory* @__remill_barrier_load_store(%struct.Memory*) #6

; Function Attrs: noduplicate noinline nounwind optnone readnone
declare !remill.function.type !1289 dso_local %struct.Memory* @__remill_atomic_begin(%struct.Memory*) #6

; Function Attrs: noduplicate noinline nounwind optnone readnone
declare !remill.function.type !1289 dso_local %struct.Memory* @__remill_atomic_end(%struct.Memory*) #6

; Function Attrs: noduplicate noinline nounwind optnone readnone
declare !remill.function.type !1289 dso_local %struct.Memory* @__remill_delay_slot_begin(%struct.Memory*) #6

; Function Attrs: noduplicate noinline nounwind optnone readnone
declare !remill.function.type !1289 dso_local %struct.Memory* @__remill_delay_slot_end(%struct.Memory*) #6

; Function Attrs: noduplicate noinline nounwind optnone
declare !remill.function.type !1289 dso_local %struct.Memory* @__remill_function_call(%struct.State* nonnull align 1, i64, %struct.Memory*) #7

; Function Attrs: noduplicate noinline nounwind optnone
declare !remill.function.type !1289 dso_local %struct.Memory* @__remill_function_return(%struct.State* nonnull align 1, i64, %struct.Memory*) #7

; Function Attrs: noduplicate noinline nounwind optnone
declare !remill.function.type !1289 dso_local %struct.Memory* @__remill_jump(%struct.State* nonnull align 1, i64, %struct.Memory*) #7

; Function Attrs: noduplicate noinline nounwind optnone
define dso_local %struct.Memory* @__remill_missing_block(%struct.State* nonnull align 1 %0, i64 %1, %struct.Memory* %2) #7 !remill.function.type !1289 {
  call void @abort()
  unreachable
}

; Function Attrs: noduplicate noinline nounwind optnone
declare !remill.function.type !1289 dso_local %struct.Memory* @__remill_async_hyper_call(%struct.State* nonnull align 1, i64, %struct.Memory*) #7

; Function Attrs: nobuiltin noinline
define private void @_start() #8 {
  %1 = call %struct.State* @__mcsema_init_reg_state()
  %2 = call %struct.Memory* @sub_4011a0__start(%struct.State* %1, i64 4198816, %struct.Memory* null)
  ret void
}

; Function Attrs: nobuiltin noinline
define private void @frame_dummy() #8 {
  %1 = call %struct.State* @__mcsema_init_reg_state()
  %2 = call %struct.Memory* @sub_401280_frame_dummy(%struct.State* %1, i64 4199040, %struct.Memory* null)
  ret void
}

; Function Attrs: nobuiltin noinline
define private void @__do_global_dtors_aux() #8 {
  %1 = call %struct.State* @__mcsema_init_reg_state()
  %2 = call %struct.Memory* @sub_401250___do_global_dtors_aux(%struct.State* %1, i64 4198992, %struct.Memory* null)
  ret void
}

; Function Attrs: nobuiltin noinline
define private void @.init_proc() #8 {
  %1 = call %struct.State* @__mcsema_init_reg_state()
  %2 = call %struct.Memory* @sub_401000__init_proc(%struct.State* %1, i64 4198400, %struct.Memory* null)
  ret void
}

; Function Attrs: nobuiltin noinline
define private void @.term_proc() #8 {
  %1 = call %struct.State* @__mcsema_init_reg_state()
  %2 = call %struct.Memory* @sub_4015fc__term_proc(%struct.State* %1, i64 4199932, %struct.Memory* null)
  ret void
}

; Function Attrs: noreturn
declare void @abort() #9

; Function Attrs: noinline
define internal %struct.Memory* @sub_4015fc__term_proc(%struct.State* noalias nonnull align 1 %state, i64 %pc, %struct.Memory* noalias %memory) #10 {
  %1 = getelementptr inbounds %struct.State, %struct.State* %state, i32 0, i32 6, i32 11, i32 0, i32 0
  %2 = getelementptr inbounds %struct.State, %struct.State* %state, i32 0, i32 6, i32 7, i32 0, i32 0
  %BRANCH_TAKEN = alloca i8, align 1
  %RETURN_PC = alloca i64, align 8
  %MONITOR = alloca i64, align 8
  %STATE = alloca %struct.State*, align 8
  store %struct.State* @__mcsema_reg_state, %struct.State** %STATE, align 8
  %MEMORY = alloca %struct.Memory*, align 8
  store %struct.Memory* %memory, %struct.Memory** %MEMORY, align 8
  %NEXT_PC = alloca i64, align 8
  store volatile i64 %pc, i64* %NEXT_PC, align 8
  %ESBASE = alloca i64, align 8
  store volatile i64 0, i64* %ESBASE, align 8
  %DSBASE = alloca i64, align 8
  store volatile i64 0, i64* %DSBASE, align 8
  %CSBASE = alloca i64, align 8
  store volatile i64 0, i64* %CSBASE, align 8
  %SSBASE = alloca i64, align 8
  store volatile i64 0, i64* %SSBASE, align 8
  store i64 ptrtoint (void ()* @.term_proc to i64), i64* %NEXT_PC, align 8
  store void ()* @.term_proc, void ()** @RIP_2472_294e750, align 8
  %stack_ptr_var = alloca i64, i64 1, align 8
  %frame_ptr_var = alloca i64, i64 1, align 8
  br label %inst_4015fc

inst_4015fc:                                      ; preds = %0
  %3 = load volatile i64, i64* %NEXT_PC, align 8
  store volatile i64 %3, i64* @RIP_2472_293da00, align 8
  %4 = add i64 %3, 4
  store volatile i64 %4, i64* %NEXT_PC, align 8
  %5 = load i32, i32* @RDX_2264_293d9e8, align 4
  %6 = zext i32 %5 to i64
  %7 = load i32, i32* @RDI_2296_293d9e8, align 4
  %8 = zext i32 %7 to i64
  %9 = load %struct.Memory*, %struct.Memory** %MEMORY, align 8
  store volatile %struct.Memory* %9, %struct.Memory** %MEMORY, align 8
  br label %inst_401600

inst_401600:                                      ; preds = %inst_4015fc
  %10 = load volatile i64, i64* %NEXT_PC, align 8
  store volatile i64 %10, i64* @RIP_2472_293da00, align 8
  %11 = add i64 %10, 4
  store volatile i64 %11, i64* %NEXT_PC, align 8
  %12 = load i64, i64* @RSP_2312_293da00, align 8
  %13 = load %struct.Memory*, %struct.Memory** %MEMORY, align 8
  %sub.i.i = sub i64 %12, 8
  store i64 %sub.i.i, i64* @RSP_2312_293da00, align 8, !tbaa !1290
  %cmp.i.i.i = icmp ult i64 %12, 8
  %conv.i.i = zext i1 %cmp.i.i.i to i8
  store i8 %conv.i.i, i8* @CF_2065_293d9b8, align 1, !tbaa !1294
  %conv.i.i.i.i = trunc i64 %sub.i.i to i32
  %conv.i.i.i.i.i = and i32 %conv.i.i.i.i, 255
  %14 = call i32 @llvm.ctpop.i32(i32 %conv.i.i.i.i.i) #14, !range !1308
  %15 = trunc i32 %14 to i8
  %16 = and i8 %15, 1
  %17 = xor i8 %16, 1
  store i8 %17, i8* @PF_2067_293d9b8, align 1, !tbaa !1309
  %xor.i25.i.i.i = xor i64 8, %12
  %xor1.i.i.i.i = xor i64 %xor.i25.i.i.i, %sub.i.i
  %and.i.i.i.i = lshr i64 %xor1.i.i.i.i, 4
  %18 = trunc i64 %and.i.i.i.i to i8
  %19 = and i8 %18, 1
  store i8 %19, i8* @AF_2069_293d9b8, align 1, !tbaa !1310
  %cmp.i24.i.i.i = icmp eq i64 %sub.i.i, 0
  %conv5.i.i.i = zext i1 %cmp.i24.i.i.i to i8
  store i8 %conv5.i.i.i, i8* @ZF_2071_293d9b8, align 1, !tbaa !1311
  %res.lobit.i.i.i = lshr i64 %sub.i.i, 63
  %20 = trunc i64 %res.lobit.i.i.i to i8
  store i8 %20, i8* @SF_2073_293d9b8, align 1, !tbaa !1312
  %shr.i.i.i.i = lshr i64 %12, 63
  %xor3.i.i.i.i = xor i64 %res.lobit.i.i.i, %shr.i.i.i.i
  %add.i.i.i.i = add nuw nsw i64 %xor3.i.i.i.i, %shr.i.i.i.i
  %cmp.i.i.i.i = icmp eq i64 %add.i.i.i.i, 2
  %conv11.i.i.i = zext i1 %cmp.i.i.i.i to i8
  store i8 %conv11.i.i.i, i8* @OF_2077_293d9b8, align 1, !tbaa !1313
  store volatile %struct.Memory* %13, %struct.Memory** %MEMORY, align 8
  br label %inst_401604

inst_401604:                                      ; preds = %inst_401600
  %21 = load volatile i64, i64* %NEXT_PC, align 8
  store volatile i64 %21, i64* @RIP_2472_293da00, align 8
  %22 = add i64 %21, 4
  store volatile i64 %22, i64* %NEXT_PC, align 8
  %23 = load i64, i64* @RSP_2312_293da00, align 8
  %24 = load %struct.Memory*, %struct.Memory** %MEMORY, align 8
  %add.i.i1 = add i64 8, %23
  store i64 %add.i.i1, i64* @RSP_2312_293da00, align 8, !tbaa !1290
  %cmp.i.i.i2 = icmp ult i64 %add.i.i1, %23
  %cmp1.i.i.i = icmp ult i64 %add.i.i1, 8
  %25 = or i1 %cmp.i.i.i2, %cmp1.i.i.i
  %conv.i.i3 = zext i1 %25 to i8
  store i8 %conv.i.i3, i8* @CF_2065_293d9b8, align 1, !tbaa !1294
  %conv.i.i.i.i5 = trunc i64 %add.i.i1 to i32
  %conv.i.i.i.i.i6 = and i32 %conv.i.i.i.i5, 255
  %26 = call i32 @llvm.ctpop.i32(i32 %conv.i.i.i.i.i6) #14, !range !1308
  %27 = trunc i32 %26 to i8
  %28 = and i8 %27, 1
  %29 = xor i8 %28, 1
  store i8 %29, i8* @PF_2067_293d9b8, align 1, !tbaa !1309
  %xor.i25.i.i.i8 = xor i64 8, %23
  %xor1.i.i.i.i9 = xor i64 %xor.i25.i.i.i8, %add.i.i1
  %and.i.i.i.i10 = lshr i64 %xor1.i.i.i.i9, 4
  %30 = trunc i64 %and.i.i.i.i10 to i8
  %31 = and i8 %30, 1
  store i8 %31, i8* @AF_2069_293d9b8, align 1, !tbaa !1310
  %cmp.i24.i.i.i12 = icmp eq i64 %add.i.i1, 0
  %conv5.i.i.i13 = zext i1 %cmp.i24.i.i.i12 to i8
  store i8 %conv5.i.i.i13, i8* @ZF_2071_293d9b8, align 1, !tbaa !1311
  %res.lobit.i.i.i15 = lshr i64 %add.i.i1, 63
  %32 = trunc i64 %res.lobit.i.i.i15 to i8
  store i8 %32, i8* @SF_2073_293d9b8, align 1, !tbaa !1312
  %shr.i.i.i.i17 = lshr i64 %23, 63
  %xor.i.i.i.i = xor i64 %res.lobit.i.i.i15, %shr.i.i.i.i17
  %add.i.i.i.i18 = add nuw nsw i64 %xor.i.i.i.i, %res.lobit.i.i.i15
  %cmp.i.i.i.i19 = icmp eq i64 %add.i.i.i.i18, 2
  %conv11.i.i.i20 = zext i1 %cmp.i.i.i.i19 to i8
  store i8 %conv11.i.i.i20, i8* @OF_2077_293d9b8, align 1, !tbaa !1313
  store volatile %struct.Memory* %24, %struct.Memory** %MEMORY, align 8
  br label %inst_401608

inst_401608:                                      ; preds = %inst_401604
  %33 = load volatile i64, i64* %NEXT_PC, align 8
  store volatile i64 %33, i64* @RIP_2472_293da00, align 8
  %34 = add i64 %33, 1
  store volatile i64 %34, i64* %NEXT_PC, align 8
  %35 = load %struct.Memory*, %struct.Memory** %MEMORY, align 8
  %36 = load i64*, i64** @RSP_2312_2948f30, align 8
  %37 = load i64*, i64** @RSP_2312_2948f30, align 8
  %38 = ptrtoint i64* %37 to i64
  %39 = load i64, i64* %36, align 8
  store i64 %39, i64* @RIP_2472_293da00, align 8, !tbaa !1290
  store i64 %39, i64* %NEXT_PC, align 8, !tbaa !1290
  %40 = load i64, i64* @RSP_2312_293da00, align 8, !tbaa !1314
  %add.i.i = add i64 %40, 8
  store i64 %add.i.i, i64* @RSP_2312_293da00, align 8, !tbaa !1290
  store volatile %struct.Memory* %35, %struct.Memory** %MEMORY, align 8
  %41 = load %struct.Memory*, %struct.Memory** %MEMORY, align 8
  ret %struct.Memory* %41
}

; Function Attrs: noinline
define internal %struct.Memory* @sub_401440__ZN9__gnu_cxx6__stoaIddcJEEET0_PFT_PKT1_PPS3_DpT2_EPKcS5_PmS9_(%struct.State* noalias nonnull align 1 %state, i64 %pc, %struct.Memory* noalias %memory) #10 {
  %STATE.i = alloca %struct.State*, align 8
  %MEMORY.i = alloca %struct.Memory*, align 8
  %NEXT_PC.i = alloca i64, align 8
  %ESBASE.i = alloca i64, align 8
  %DSBASE.i = alloca i64, align 8
  %CSBASE.i = alloca i64, align 8
  %SSBASE.i = alloca i64, align 8
  %1 = getelementptr inbounds %struct.State, %struct.State* %state, i32 0, i32 6, i32 7, i32 0, i32 0
  %2 = getelementptr inbounds %struct.State, %struct.State* %state, i32 0, i32 1, i32 0, i32 0, i32 0, i32 0, i32 0
  %XMM0 = bitcast i64* %2 to [16 x i8]*, !remill_register !1315
  %BRANCH_TAKEN = alloca i8, align 1
  %RETURN_PC = alloca i64, align 8
  %MONITOR = alloca i64, align 8
  %STATE = alloca %struct.State*, align 8
  store %struct.State* @__mcsema_reg_state, %struct.State** %STATE, align 8
  %MEMORY = alloca %struct.Memory*, align 8
  store %struct.Memory* %memory, %struct.Memory** %MEMORY, align 8
  %NEXT_PC = alloca i64, align 8
  store volatile i64 %pc, i64* %NEXT_PC, align 8
  %ESBASE = alloca i64, align 8
  store volatile i64 0, i64* %ESBASE, align 8
  %DSBASE = alloca i64, align 8
  store volatile i64 0, i64* %DSBASE, align 8
  %CSBASE = alloca i64, align 8
  store volatile i64 0, i64* %CSBASE, align 8
  %SSBASE = alloca i64, align 8
  store volatile i64 0, i64* %SSBASE, align 8
  store i64 ptrtoint (i64 (i64, i64, i64, i64, i64, i64, i64, i64)* @_ZN9__gnu_cxx6__stoaIddcJEEET0_PFT_PKT1_PPS3_DpT2_EPKcS5_PmS9_ to i64), i64* %NEXT_PC, align 8
  store i64 (i64, i64, i64, i64, i64, i64, i64, i64)* @_ZN9__gnu_cxx6__stoaIddcJEEET0_PFT_PKT1_PPS3_DpT2_EPKcS5_PmS9_, i64 (i64, i64, i64, i64, i64, i64, i64, i64)** @RIP_2472_37b0970, align 8
  %stack_ptr_var = alloca i64, i64 1, align 8
  %frame_ptr_var = alloca i64, i64 1, align 8
  br label %inst_401440

inst_401440:                                      ; preds = %0
  %3 = load volatile i64, i64* %NEXT_PC, align 8
  store volatile i64 %3, i64* @RIP_2472_293da00, align 8
  %4 = add i64 %3, 1
  store volatile i64 %4, i64* %NEXT_PC, align 8
  %5 = load i64, i64* @RBP_2328_293da00, align 8
  %6 = load %struct.Memory*, %struct.Memory** %MEMORY, align 8
  %7 = load i64, i64* @RSP_2312_293da00, align 8, !tbaa !1314
  %sub.i.i.i = add i64 %7, -8
  %8 = inttoptr i64 %sub.i.i.i to i64*
  %9 = inttoptr i64 %sub.i.i.i to i64*
  %10 = ptrtoint i64* %9 to i64
  store i64 %5, i64* %8, align 8
  store i64 %sub.i.i.i, i64* @RSP_2312_293da00, align 8, !tbaa !1290
  store volatile %struct.Memory* %6, %struct.Memory** %MEMORY, align 8
  br label %inst_401441

inst_401479:                                      ; preds = %inst_401474
  %11 = load volatile i64, i64* %NEXT_PC, align 8
  store volatile i64 %11, i64* @RIP_2472_293da00, align 8
  %12 = add i64 %11, 5
  store volatile i64 %12, i64* %NEXT_PC, align 8
  %XMM02 = bitcast [16 x i8]* %XMM0 to i8*
  %13 = load i64, i64* @RBP_2328_293da00, align 8
  %14 = sub i64 %13, 96
  %15 = load %struct.Memory*, %struct.Memory** %MEMORY, align 8
  %16 = inttoptr i64 %14 to double*
  %17 = inttoptr i64 %14 to double*
  %18 = ptrtoint double* %17 to i64
  %19 = load double, double* %16, align 8
  store double %19, double* @XMM0_16_293d8f8, align 1, !tbaa !1316
  store double 0.000000e+00, double* @XMM0_24_293d8f8, align 1, !tbaa !1316
  store volatile %struct.Memory* %15, %struct.Memory** %MEMORY, align 8
  br label %inst_40147e

inst_401502:                                      ; preds = %inst_4014fd, %inst_4014ef
  %20 = load volatile i64, i64* %NEXT_PC, align 8
  store volatile i64 %20, i64* @RIP_2472_293da00, align 8
  %21 = add i64 %20, 5
  store volatile i64 %21, i64* %NEXT_PC, align 8
  %XMM05 = bitcast [16 x i8]* %XMM0 to i8*
  %22 = load i64, i64* @RBP_2328_293da00, align 8
  %23 = sub i64 %22, 64
  %24 = load %struct.Memory*, %struct.Memory** %MEMORY, align 8
  %25 = inttoptr i64 %23 to double*
  %26 = inttoptr i64 %23 to double*
  %27 = ptrtoint double* %26 to i64
  %28 = load double, double* %25, align 8
  store double %28, double* @XMM0_16_293d8f8, align 1, !tbaa !1316
  %arrayidx2.i.i12 = getelementptr inbounds i8, i8* %XMM05, i64 8
  store double 0.000000e+00, double* @XMM0_24_293d8f8, align 1, !tbaa !1316
  store volatile %struct.Memory* %24, %struct.Memory** %MEMORY, align 8
  br label %inst_401507

inst_4014e4:                                      ; preds = %inst_4014df, %420
  %29 = load volatile i64, i64* %NEXT_PC, align 8
  store volatile i64 %29, i64* @RIP_2472_293da00, align 8
  %30 = add i64 %29, 3
  store volatile i64 %30, i64* %NEXT_PC, align 8
  %31 = load i64, i64* @RBP_2328_293da00, align 8
  %32 = sub i64 %31, 97
  %33 = load %struct.Memory*, %struct.Memory** %MEMORY, align 8
  %34 = inttoptr i64 %32 to i8*
  %35 = inttoptr i64 %32 to i8*
  %36 = ptrtoint i8* %35 to i64
  %37 = load i8, i8* %34, align 1
  store i8 %37, i8* @RAX_2216_293d9b8, align 1, !tbaa !1314
  store volatile %struct.Memory* %33, %struct.Memory** %MEMORY, align 8
  br label %inst_4014e7

inst_4014c7:                                      ; preds = %421
  %38 = load volatile i64, i64* %NEXT_PC, align 8
  store volatile i64 %38, i64* @RIP_2472_293da00, align 8
  %39 = add i64 %38, 5
  store volatile i64 %39, i64* %NEXT_PC, align 8
  %40 = load i64, i64* @RBP_2328_293da00, align 8
  %41 = sub i64 %40, 64
  %42 = load %struct.Memory*, %struct.Memory** %MEMORY, align 8
  %43 = inttoptr i64 %41 to double*
  %44 = inttoptr i64 %41 to double*
  %45 = ptrtoint double* %44 to i64
  %46 = load double, double* %43, align 8
  store double %46, double* @XMM0_16_293d8f8, align 1, !tbaa !1316
  store double 0.000000e+00, double* @XMM0_24_293d8f8, align 1, !tbaa !1316
  store volatile %struct.Memory* %42, %struct.Memory** %MEMORY, align 8
  br label %inst_4014cc

inst_40154c:                                      ; preds = %inst_4014af
  %47 = load volatile i64, i64* %NEXT_PC, align 8
  store volatile i64 %47, i64* @RIP_2472_293da00, align 8
  %48 = add i64 %47, 4
  store volatile i64 %48, i64* %NEXT_PC, align 8
  %49 = load i64, i64* @RBP_2328_293da00, align 8
  %50 = sub i64 %49, 72
  %51 = load %struct.Memory*, %struct.Memory** %MEMORY, align 8
  %52 = inttoptr i64 %50 to i64*
  %53 = inttoptr i64 %50 to i64*
  %54 = ptrtoint i64* %53 to i64
  %55 = load i64, i64* %52, align 8
  store i64 %55, i64* @RDI_2296_293da00, align 8, !tbaa !1290
  store volatile %struct.Memory* %51, %struct.Memory** %MEMORY, align 8
  br label %inst_401550

inst_40152e:                                      ; preds = %inst_40152b, %520
  %56 = load volatile i64, i64* %NEXT_PC, align 8
  store volatile i64 %56, i64* @RIP_2472_293da00, align 8
  %57 = add i64 %56, 5
  store volatile i64 %57, i64* %NEXT_PC, align 8
  %58 = load i64, i64* @RBP_2328_293da00, align 8
  %59 = sub i64 %58, 40
  %60 = load %struct.Memory*, %struct.Memory** %MEMORY, align 8
  %61 = inttoptr i64 %59 to double*
  %62 = inttoptr i64 %59 to double*
  %63 = ptrtoint double* %62 to i64
  %64 = load double, double* %61, align 8
  store double %64, double* @XMM0_16_293d8f8, align 1, !tbaa !1316
  store double 0.000000e+00, double* @XMM0_24_293d8f8, align 1, !tbaa !1316
  store volatile %struct.Memory* %60, %struct.Memory** %MEMORY, align 8
  br label %inst_401533

inst_4014ef:                                      ; preds = %482
  %65 = load volatile i64, i64* %NEXT_PC, align 8
  store volatile i64 %65, i64* @RIP_2472_293da00, align 8
  %66 = add i64 %65, 5
  store volatile i64 %66, i64* %NEXT_PC, align 8
  %67 = load i64, i64* %NEXT_PC, align 8
  %68 = add i64 %67, 14
  %69 = load %struct.Memory*, %struct.Memory** %MEMORY, align 8
  store i64 %68, i64* @RIP_2472_293da00, align 8, !tbaa !1290
  store i64 %68, i64* %NEXT_PC, align 8, !tbaa !1290
  store volatile %struct.Memory* %69, %struct.Memory** %MEMORY, align 8
  br label %inst_401502

inst_401491:                                      ; preds = %334
  %70 = load volatile i64, i64* %NEXT_PC, align 8
  store volatile i64 %70, i64* @RIP_2472_293da00, align 8
  %71 = add i64 %70, 4
  store volatile i64 %71, i64* %NEXT_PC, align 8
  %72 = load i64, i64* @RBP_2328_293da00, align 8
  %73 = sub i64 %72, 16
  %74 = load %struct.Memory*, %struct.Memory** %MEMORY, align 8
  %75 = inttoptr i64 %73 to i64*
  %76 = inttoptr i64 %73 to i64*
  %77 = ptrtoint i64* %76 to i64
  %78 = load i64, i64* %75, align 8
  store i64 %78, i64* @RDI_2296_293da00, align 8, !tbaa !1290
  store volatile %struct.Memory* %74, %struct.Memory** %MEMORY, align 8
  br label %inst_401495

inst_401511:                                      ; preds = %inst_40150c
  %79 = load volatile i64, i64* %NEXT_PC, align 8
  store volatile i64 %79, i64* @RIP_2472_293da00, align 8
  %80 = add i64 %79, 5
  store volatile i64 %80, i64* %NEXT_PC, align 8
  %81 = load i64, i64* @RBP_2328_293da00, align 8
  %82 = sub i64 %81, 32
  %83 = load %struct.Memory*, %struct.Memory** %MEMORY, align 8
  %84 = inttoptr i64 %82 to i64*
  %85 = inttoptr i64 %82 to i64*
  %86 = ptrtoint i64* %85 to i64
  %87 = load i64, i64* %84, align 8
  store i8 0, i8* @CF_2065_293d9b8, align 1, !tbaa !1294
  %conv.i.i.i.i = trunc i64 %87 to i32
  %conv.i.i.i.i.i = and i32 %conv.i.i.i.i, 255
  %88 = call i32 @llvm.ctpop.i32(i32 %conv.i.i.i.i.i) #14, !range !1308
  %89 = trunc i32 %88 to i8
  %90 = and i8 %89, 1
  %91 = xor i8 %90, 1
  store i8 %91, i8* @PF_2067_293d9b8, align 1, !tbaa !1309
  store i8 0, i8* @AF_2069_293d9b8, align 1, !tbaa !1310
  %cmp.i24.i.i.i = icmp eq i64 %87, 0
  %conv5.i.i.i = zext i1 %cmp.i24.i.i.i to i8
  store i8 %conv5.i.i.i, i8* @ZF_2071_293d9b8, align 1, !tbaa !1311
  %res.lobit.i.i.i = lshr i64 %87, 63
  %92 = trunc i64 %res.lobit.i.i.i to i8
  store i8 %92, i8* @SF_2073_293d9b8, align 1, !tbaa !1312
  %shr.i.i.i.i = lshr i64 %87, 63
  %xor3.i.i.i.i = xor i64 %res.lobit.i.i.i, %shr.i.i.i.i
  %add.i.i.i.i = add nuw nsw i64 %xor3.i.i.i.i, %shr.i.i.i.i
  %cmp.i.i.i.i = icmp eq i64 %add.i.i.i.i, 2
  %conv11.i.i.i = zext i1 %cmp.i.i.i.i to i8
  store i8 %conv11.i.i.i, i8* @OF_2077_293d9b8, align 1, !tbaa !1313
  store volatile %struct.Memory* %83, %struct.Memory** %MEMORY, align 8
  br label %inst_401516

inst_4014b4:                                      ; preds = %333
  %93 = load volatile i64, i64* %NEXT_PC, align 8
  store volatile i64 %93, i64* @RIP_2472_293da00, align 8
  %94 = add i64 %93, 5
  store volatile i64 %94, i64* %NEXT_PC, align 8
  %95 = load i64, i64* %NEXT_PC, align 8
  %96 = sub i64 %95, 1161
  %97 = load i64, i64* %NEXT_PC, align 8
  %98 = load %struct.Memory*, %struct.Memory** %MEMORY, align 8
  %99 = load i64, i64* @RSP_2312_293da00, align 8, !tbaa !1314
  %sub.i.i = add i64 %99, -8
  %100 = inttoptr i64 %sub.i.i to i64*
  %101 = inttoptr i64 %sub.i.i to i64*
  %102 = ptrtoint i64* %101 to i64
  store i64 %97, i64* %100, align 8
  store i64 %sub.i.i, i64* @RSP_2312_293da00, align 8, !tbaa !1290
  store i64 %96, i64* @RIP_2472_293da00, align 8, !tbaa !1290
  store i64 %96, i64* %NEXT_PC, align 8, !tbaa !1290
  store i64 %97, i64* %RETURN_PC, align 8, !tbaa !1290
  store volatile %struct.Memory* %98, %struct.Memory** %MEMORY, align 8
  %103 = load %struct.Memory*, %struct.Memory** %MEMORY, align 8
  %104 = call %struct.Memory* @ext_4041e0___errno_location(%struct.State* @__mcsema_reg_state, i64 undef, %struct.Memory* %103)
  store %struct.Memory* %104, %struct.Memory** %MEMORY, align 8
  store i8* @data_4014b9, i8** @RIP_2472_2948dd0, align 8
  store i64 ptrtoint (i8* @data_4014b9 to i64), i64* %NEXT_PC, align 8
  br label %inst_4014b9

inst_4014f4:                                      ; preds = %481
  %105 = load volatile i64, i64* %NEXT_PC, align 8
  store volatile i64 %105, i64* @RIP_2472_293da00, align 8
  %106 = add i64 %105, 4
  store volatile i64 %106, i64* %NEXT_PC, align 8
  %107 = load i64, i64* @RBP_2328_293da00, align 8
  %108 = sub i64 %107, 16
  %109 = load %struct.Memory*, %struct.Memory** %MEMORY, align 8
  %110 = inttoptr i64 %108 to i64*
  %111 = inttoptr i64 %108 to i64*
  %112 = ptrtoint i64* %111 to i64
  %113 = load i64, i64* %110, align 8
  store i64 %113, i64* @RDI_2296_293da00, align 8, !tbaa !1290
  store volatile %struct.Memory* %109, %struct.Memory** %MEMORY, align 8
  br label %inst_4014f8

inst_4014d9:                                      ; preds = %inst_4014d4
  %114 = load volatile i64, i64* %NEXT_PC, align 8
  store volatile i64 %114, i64* @RIP_2472_293da00, align 8
  %115 = add i64 %114, 3
  store volatile i64 %115, i64* %NEXT_PC, align 8
  %116 = load i64, i64* @RBP_2328_293da00, align 8
  %117 = sub i64 %116, 98
  %118 = load %struct.Memory*, %struct.Memory** %MEMORY, align 8
  %119 = inttoptr i64 %117 to i8*
  %120 = inttoptr i64 %117 to i8*
  %121 = ptrtoint i8* %120 to i64
  %122 = load i8, i8* %119, align 1
  store i8 %122, i8* @RAX_2216_293d9b8, align 1, !tbaa !1314
  store volatile %struct.Memory* %118, %struct.Memory** %MEMORY, align 8
  br label %inst_4014dc

inst_40151c:                                      ; preds = %521
  %123 = load volatile i64, i64* %NEXT_PC, align 8
  store volatile i64 %123, i64* @RIP_2472_293da00, align 8
  %124 = add i64 %123, 4
  store volatile i64 %124, i64* %NEXT_PC, align 8
  %125 = load i64, i64* @RBP_2328_293da00, align 8
  %126 = sub i64 %125, 48
  %127 = load %struct.Memory*, %struct.Memory** %MEMORY, align 8
  %128 = inttoptr i64 %126 to i64*
  %129 = inttoptr i64 %126 to i64*
  %130 = ptrtoint i64* %129 to i64
  %131 = load i64, i64* %128, align 8
  store i64 %131, i64* @RAX_2216_293da00, align 8, !tbaa !1290
  store volatile %struct.Memory* %127, %struct.Memory** %MEMORY, align 8
  br label %inst_401520

inst_40149f:                                      ; preds = %inst_40149a
  %132 = load volatile i64, i64* %NEXT_PC, align 8
  store volatile i64 %132, i64* @RIP_2472_293da00, align 8
  %133 = add i64 %132, 4
  store volatile i64 %133, i64* %NEXT_PC, align 8
  %134 = load i64, i64* @RBP_2328_293da00, align 8
  %135 = sub i64 %134, 72
  %136 = load i64, i64* @RAX_2216_293da00, align 8
  %137 = load %struct.Memory*, %struct.Memory** %MEMORY, align 8
  %138 = inttoptr i64 %135 to i64*
  %139 = inttoptr i64 %135 to i64*
  %140 = ptrtoint i64* %139 to i64
  store i64 %136, i64* %138, align 8
  store volatile %struct.Memory* %137, %struct.Memory** %MEMORY, align 8
  br label %inst_4014a3

inst_401441:                                      ; preds = %inst_401440
  %141 = load volatile i64, i64* %NEXT_PC, align 8
  store volatile i64 %141, i64* @RIP_2472_293da00, align 8
  %142 = add i64 %141, 3
  store volatile i64 %142, i64* %NEXT_PC, align 8
  %143 = load i64, i64* @RSP_2312_293da00, align 8
  %144 = load %struct.Memory*, %struct.Memory** %MEMORY, align 8
  store i64 %143, i64* @RBP_2328_293da00, align 8, !tbaa !1290
  store volatile %struct.Memory* %144, %struct.Memory** %MEMORY, align 8
  br label %inst_401444

inst_401444:                                      ; preds = %inst_401441
  %145 = load volatile i64, i64* %NEXT_PC, align 8
  store volatile i64 %145, i64* @RIP_2472_293da00, align 8
  %146 = add i64 %145, 4
  store volatile i64 %146, i64* %NEXT_PC, align 8
  %147 = load i64, i64* @RSP_2312_293da00, align 8
  %148 = load %struct.Memory*, %struct.Memory** %MEMORY, align 8
  %sub.i.i33 = sub i64 %147, 112
  store i64 %sub.i.i33, i64* @RSP_2312_293da00, align 8, !tbaa !1290
  %cmp.i.i.i = icmp ult i64 %147, 112
  %conv.i.i = zext i1 %cmp.i.i.i to i8
  store i8 %conv.i.i, i8* @CF_2065_293d9b8, align 1, !tbaa !1294
  %conv.i.i.i.i35 = trunc i64 %sub.i.i33 to i32
  %conv.i.i.i.i.i36 = and i32 %conv.i.i.i.i35, 255
  %149 = call i32 @llvm.ctpop.i32(i32 %conv.i.i.i.i.i36) #14, !range !1308
  %150 = trunc i32 %149 to i8
  %151 = and i8 %150, 1
  %152 = xor i8 %151, 1
  store i8 %152, i8* @PF_2067_293d9b8, align 1, !tbaa !1309
  %xor.i25.i.i.i = xor i64 112, %147
  %xor1.i.i.i.i = xor i64 %xor.i25.i.i.i, %sub.i.i33
  %and.i.i.i.i = lshr i64 %xor1.i.i.i.i, 4
  %153 = trunc i64 %and.i.i.i.i to i8
  %154 = and i8 %153, 1
  store i8 %154, i8* @AF_2069_293d9b8, align 1, !tbaa !1310
  %cmp.i24.i.i.i39 = icmp eq i64 %sub.i.i33, 0
  %conv5.i.i.i40 = zext i1 %cmp.i24.i.i.i39 to i8
  store i8 %conv5.i.i.i40, i8* @ZF_2071_293d9b8, align 1, !tbaa !1311
  %res.lobit.i.i.i42 = lshr i64 %sub.i.i33, 63
  %155 = trunc i64 %res.lobit.i.i.i42 to i8
  store i8 %155, i8* @SF_2073_293d9b8, align 1, !tbaa !1312
  %shr.i.i.i.i44 = lshr i64 %147, 63
  %xor3.i.i.i.i45 = xor i64 %res.lobit.i.i.i42, %shr.i.i.i.i44
  %add.i.i.i.i46 = add nuw nsw i64 %xor3.i.i.i.i45, %shr.i.i.i.i44
  %cmp.i.i.i.i47 = icmp eq i64 %add.i.i.i.i46, 2
  %conv11.i.i.i48 = zext i1 %cmp.i.i.i.i47 to i8
  store i8 %conv11.i.i.i48, i8* @OF_2077_293d9b8, align 1, !tbaa !1313
  store volatile %struct.Memory* %148, %struct.Memory** %MEMORY, align 8
  br label %inst_401448

inst_401448:                                      ; preds = %inst_401444
  %156 = load volatile i64, i64* %NEXT_PC, align 8
  store volatile i64 %156, i64* @RIP_2472_293da00, align 8
  %157 = add i64 %156, 4
  store volatile i64 %157, i64* %NEXT_PC, align 8
  %158 = load i64, i64* @RBP_2328_293da00, align 8
  %159 = sub i64 %158, 8
  %160 = load i64, i64* @RDI_2296_293da00, align 8
  %161 = load %struct.Memory*, %struct.Memory** %MEMORY, align 8
  %162 = inttoptr i64 %159 to i64*
  %163 = inttoptr i64 %159 to i64*
  %164 = ptrtoint i64* %163 to i64
  store i64 %160, i64* %162, align 8
  store volatile %struct.Memory* %161, %struct.Memory** %MEMORY, align 8
  br label %inst_40144c

inst_40144c:                                      ; preds = %inst_401448
  %165 = load volatile i64, i64* %NEXT_PC, align 8
  store volatile i64 %165, i64* @RIP_2472_293da00, align 8
  %166 = add i64 %165, 4
  store volatile i64 %166, i64* %NEXT_PC, align 8
  %167 = load i64, i64* @RBP_2328_293da00, align 8
  %168 = sub i64 %167, 16
  %169 = load i64, i64* @RSI_2280_293da00, align 8
  %170 = load %struct.Memory*, %struct.Memory** %MEMORY, align 8
  %171 = inttoptr i64 %168 to i64*
  %172 = inttoptr i64 %168 to i64*
  %173 = ptrtoint i64* %172 to i64
  store i64 %169, i64* %171, align 8
  store volatile %struct.Memory* %170, %struct.Memory** %MEMORY, align 8
  br label %inst_401450

inst_401450:                                      ; preds = %inst_40144c
  %174 = load volatile i64, i64* %NEXT_PC, align 8
  store volatile i64 %174, i64* @RIP_2472_293da00, align 8
  %175 = add i64 %174, 4
  store volatile i64 %175, i64* %NEXT_PC, align 8
  %176 = load i64, i64* @RBP_2328_293da00, align 8
  %177 = sub i64 %176, 24
  %178 = load i64, i64* @RDX_2264_293da00, align 8
  %179 = load %struct.Memory*, %struct.Memory** %MEMORY, align 8
  %180 = inttoptr i64 %177 to i64*
  %181 = inttoptr i64 %177 to i64*
  %182 = ptrtoint i64* %181 to i64
  store i64 %178, i64* %180, align 8
  store volatile %struct.Memory* %179, %struct.Memory** %MEMORY, align 8
  br label %inst_401454

inst_401454:                                      ; preds = %inst_401450
  %183 = load volatile i64, i64* %NEXT_PC, align 8
  store volatile i64 %183, i64* @RIP_2472_293da00, align 8
  %184 = add i64 %183, 4
  store volatile i64 %184, i64* %NEXT_PC, align 8
  %185 = load i64, i64* @RBP_2328_293da00, align 8
  %186 = sub i64 %185, 32
  %187 = load i64, i64* @RCX_2248_293da00, align 8
  %188 = load %struct.Memory*, %struct.Memory** %MEMORY, align 8
  %189 = inttoptr i64 %186 to i64*
  %190 = inttoptr i64 %186 to i64*
  %191 = ptrtoint i64* %190 to i64
  store i64 %187, i64* %189, align 8
  store volatile %struct.Memory* %188, %struct.Memory** %MEMORY, align 8
  br label %inst_401458

inst_401458:                                      ; preds = %inst_401454
  %192 = load volatile i64, i64* %NEXT_PC, align 8
  store volatile i64 %192, i64* @RIP_2472_293da00, align 8
  %193 = add i64 %192, 4
  store volatile i64 %193, i64* %NEXT_PC, align 8
  %194 = load i64, i64* @RBP_2328_293da00, align 8
  %195 = sub i64 %194, 56
  %196 = load %struct.Memory*, %struct.Memory** %MEMORY, align 8
  store i64 %195, i64* @RDI_2296_293da00, align 8, !tbaa !1290
  store volatile %struct.Memory* %196, %struct.Memory** %MEMORY, align 8
  br label %inst_40145c

inst_40145c:                                      ; preds = %inst_401458
  %197 = load volatile i64, i64* %NEXT_PC, align 8
  store volatile i64 %197, i64* @RIP_2472_293da00, align 8
  %198 = add i64 %197, 5
  store volatile i64 %198, i64* %NEXT_PC, align 8
  %199 = load i64, i64* %NEXT_PC, align 8
  %200 = add i64 %199, 255
  %201 = load i64, i64* %NEXT_PC, align 8
  %202 = load %struct.Memory*, %struct.Memory** %MEMORY, align 8
  %203 = load i64, i64* @RSP_2312_293da00, align 8, !tbaa !1314
  %sub.i.i60 = add i64 %203, -8
  %204 = inttoptr i64 %sub.i.i60 to i64*
  %205 = inttoptr i64 %sub.i.i60 to i64*
  %206 = ptrtoint i64* %205 to i64
  store i64 %201, i64* %204, align 8
  store i64 %sub.i.i60, i64* @RSP_2312_293da00, align 8, !tbaa !1290
  store i64 %200, i64* @RIP_2472_293da00, align 8, !tbaa !1290
  store i64 %200, i64* %NEXT_PC, align 8, !tbaa !1290
  store i64 %201, i64* %RETURN_PC, align 8, !tbaa !1290
  store volatile %struct.Memory* %202, %struct.Memory** %MEMORY, align 8
  %207 = load %struct.Memory*, %struct.Memory** %MEMORY, align 8
  %208 = call %struct.Memory* @sub_401560__ZZN9__gnu_cxx6__stoaIddcJEEET0_PFT_PKT1_PPS3_DpT2_EPKcS5_PmS9_EN11_Save_errnoC2Ev(%struct.State* @__mcsema_reg_state, i64 undef, %struct.Memory* %207)
  store %struct.Memory* %208, %struct.Memory** %MEMORY, align 8
  store i8* @data_401461, i8** @RIP_2472_2948dd0, align 8
  store i64 ptrtoint (i8* @data_401461 to i64), i64* %NEXT_PC, align 8
  br label %inst_401461

inst_401461:                                      ; preds = %inst_40145c
  %209 = load volatile i64, i64* %NEXT_PC, align 8
  store volatile i64 %209, i64* @RIP_2472_293da00, align 8
  %210 = add i64 %209, 4
  store volatile i64 %210, i64* %NEXT_PC, align 8
  %211 = load i64, i64* @RBP_2328_293da00, align 8
  %212 = sub i64 %211, 8
  %213 = load %struct.Memory*, %struct.Memory** %MEMORY, align 8
  %214 = inttoptr i64 %212 to i64*
  %215 = inttoptr i64 %212 to i64*
  %216 = ptrtoint i64* %215 to i64
  %217 = load i64, i64* %214, align 8
  store i64 %217, i64* @RAX_2216_293da00, align 8, !tbaa !1290
  store volatile %struct.Memory* %213, %struct.Memory** %MEMORY, align 8
  br label %inst_401465

inst_401465:                                      ; preds = %inst_401461
  %218 = load volatile i64, i64* %NEXT_PC, align 8
  store volatile i64 %218, i64* @RIP_2472_293da00, align 8
  %219 = add i64 %218, 4
  store volatile i64 %219, i64* %NEXT_PC, align 8
  %220 = load i64, i64* @RBP_2328_293da00, align 8
  %221 = sub i64 %220, 24
  %222 = load %struct.Memory*, %struct.Memory** %MEMORY, align 8
  %223 = inttoptr i64 %221 to i64*
  %224 = inttoptr i64 %221 to i64*
  %225 = ptrtoint i64* %224 to i64
  %226 = load i64, i64* %223, align 8
  store i64 %226, i64* @RDI_2296_293da00, align 8, !tbaa !1290
  store volatile %struct.Memory* %222, %struct.Memory** %MEMORY, align 8
  br label %inst_401469

inst_401469:                                      ; preds = %inst_401465
  %227 = load volatile i64, i64* %NEXT_PC, align 8
  store volatile i64 %227, i64* @RIP_2472_293da00, align 8
  %228 = add i64 %227, 4
  store volatile i64 %228, i64* %NEXT_PC, align 8
  %229 = load i64, i64* @RBP_2328_293da00, align 8
  %230 = sub i64 %229, 48
  %231 = load %struct.Memory*, %struct.Memory** %MEMORY, align 8
  store i64 %230, i64* @RSI_2280_293da00, align 8, !tbaa !1290
  store volatile %struct.Memory* %231, %struct.Memory** %MEMORY, align 8
  br label %inst_40146d

inst_40146d:                                      ; preds = %inst_401469
  %232 = load volatile i64, i64* %NEXT_PC, align 8
  store volatile i64 %232, i64* @RIP_2472_293da00, align 8
  %233 = add i64 %232, 2
  store volatile i64 %233, i64* %NEXT_PC, align 8
  %234 = load i64, i64* @RAX_2216_293da00, align 8
  %235 = load i64, i64* %NEXT_PC, align 8
  %236 = load %struct.Memory*, %struct.Memory** %MEMORY, align 8
  %237 = load i64, i64* @RSP_2312_293da00, align 8, !tbaa !1314
  %sub.i.i90 = add i64 %237, -8
  %238 = inttoptr i64 %sub.i.i90 to i64*
  %239 = inttoptr i64 %sub.i.i90 to i64*
  %240 = ptrtoint i64* %239 to i64
  store i64 %235, i64* %238, align 8
  store i64 %sub.i.i90, i64* @RSP_2312_293da00, align 8, !tbaa !1290
  store i64 %234, i64* @RIP_2472_293da00, align 8, !tbaa !1290
  store i64 %234, i64* %NEXT_PC, align 8, !tbaa !1290
  store i64 %235, i64* %RETURN_PC, align 8, !tbaa !1290
  store volatile %struct.Memory* %236, %struct.Memory** %MEMORY, align 8
  %241 = load %struct.Memory*, %struct.Memory** %MEMORY, align 8
  %242 = load i64, i64* %NEXT_PC, align 8
  %243 = bitcast %struct.State** %STATE.i to i8*
  call void @llvm.lifetime.start.p0i8(i64 8, i8* %243)
  %244 = bitcast %struct.Memory** %MEMORY.i to i8*
  call void @llvm.lifetime.start.p0i8(i64 8, i8* %244)
  %245 = bitcast i64* %NEXT_PC.i to i8*
  call void @llvm.lifetime.start.p0i8(i64 8, i8* %245)
  %246 = bitcast i64* %ESBASE.i to i8*
  call void @llvm.lifetime.start.p0i8(i64 8, i8* %246)
  %247 = bitcast i64* %DSBASE.i to i8*
  call void @llvm.lifetime.start.p0i8(i64 8, i8* %247)
  %248 = bitcast i64* %CSBASE.i to i8*
  call void @llvm.lifetime.start.p0i8(i64 8, i8* %248)
  %249 = bitcast i64* %SSBASE.i to i8*
  call void @llvm.lifetime.start.p0i8(i64 8, i8* %249)
  store %struct.State* @__mcsema_reg_state, %struct.State** %STATE.i, align 8, !noalias !1318
  store %struct.Memory* %241, %struct.Memory** %MEMORY.i, align 8, !noalias !1318
  store volatile i64 %242, i64* %NEXT_PC.i, align 8, !noalias !1318
  store volatile i64 0, i64* %ESBASE.i, align 8, !noalias !1318
  store volatile i64 0, i64* %DSBASE.i, align 8, !noalias !1318
  store volatile i64 0, i64* %CSBASE.i, align 8, !noalias !1318
  store volatile i64 0, i64* %SSBASE.i, align 8, !noalias !1318
  %250 = inttoptr i64 %242 to i64 (i64, i64, i64, i64, i64, i64, i64, i64)*
  %251 = load i64, i64* @RSP_2312_293da00, align 8, !alias.scope !1322, !noalias !1323
  %252 = add i64 %251, 8
  %253 = load i64*, i64** @RSP_2312_2948f30, align 8
  %254 = load i64*, i64** @RSP_2312_2948f30, align 8
  %255 = load i64, i64* @RSP_2312_293da00, align 8, !alias.scope !1322, !noalias !1323
  %256 = ptrtoint i64* %254 to i64
  %257 = load i64, i64* %253, align 8
  %param0.i = load i64, i64* @RDI_2296_293da00, align 8, !alias.scope !1322, !noalias !1323
  %param1.i = load i64, i64* @RSI_2280_293da00, align 8, !alias.scope !1322, !noalias !1323
  %param2.i = load i64, i64* @RDX_2264_293da00, align 8, !alias.scope !1322, !noalias !1323
  %param3.i = load i64, i64* @RCX_2248_293da00, align 8, !alias.scope !1322, !noalias !1323
  %param4.i = load i64, i64* @R8_2344_293da00, align 8, !alias.scope !1322, !noalias !1323
  %param5.i = load i64, i64* @R9_2360_293da00, align 8, !alias.scope !1322, !noalias !1323
  %258 = load i64, i64* @RSP_2312_293da00, align 8, !alias.scope !1322, !noalias !1323
  %259 = add i64 %258, 8
  %260 = inttoptr i64 %259 to i64*
  %261 = inttoptr i64 %259 to i64*
  %262 = ptrtoint i64* %261 to i64
  %263 = load i64, i64* %260, align 8
  %264 = load i64, i64* @RSP_2312_293da00, align 8, !alias.scope !1322, !noalias !1323
  %265 = add i64 %264, 16
  %266 = inttoptr i64 %265 to i64*
  %267 = inttoptr i64 %265 to i64*
  %268 = ptrtoint i64* %267 to i64
  %269 = load i64, i64* %266, align 8
  %270 = call i64 %250(i64 %param0.i, i64 %param1.i, i64 %param2.i, i64 %param3.i, i64 %param4.i, i64 %param5.i, i64 %263, i64 %269) #14
  store volatile i64 %270, i64* @RAX_2216_293da00, align 8, !alias.scope !1322, !noalias !1323
  store i64 %257, i64* %NEXT_PC.i, align 8, !noalias !1318
  store volatile i64 %252, i64* @RSP_2312_293da00, align 8, !alias.scope !1322, !noalias !1323
  %271 = bitcast %struct.State** %STATE.i to i8*
  call void @llvm.lifetime.end.p0i8(i64 8, i8* %271)
  %272 = bitcast %struct.Memory** %MEMORY.i to i8*
  call void @llvm.lifetime.end.p0i8(i64 8, i8* %272)
  %273 = bitcast i64* %NEXT_PC.i to i8*
  call void @llvm.lifetime.end.p0i8(i64 8, i8* %273)
  %274 = bitcast i64* %ESBASE.i to i8*
  call void @llvm.lifetime.end.p0i8(i64 8, i8* %274)
  %275 = bitcast i64* %DSBASE.i to i8*
  call void @llvm.lifetime.end.p0i8(i64 8, i8* %275)
  %276 = bitcast i64* %CSBASE.i to i8*
  call void @llvm.lifetime.end.p0i8(i64 8, i8* %276)
  %277 = bitcast i64* %SSBASE.i to i8*
  call void @llvm.lifetime.end.p0i8(i64 8, i8* %277)
  store %struct.Memory* %241, %struct.Memory** %MEMORY, align 8
  store i8* @data_40146f, i8** @RIP_2472_2948dd0, align 8
  store i64 ptrtoint (i8* @data_40146f to i64), i64* %NEXT_PC, align 8
  br label %inst_40146f

inst_40146f:                                      ; preds = %inst_40146d
  %278 = load volatile i64, i64* %NEXT_PC, align 8
  store volatile i64 %278, i64* @RIP_2472_293da00, align 8
  %279 = add i64 %278, 5
  store volatile i64 %279, i64* %NEXT_PC, align 8
  %280 = load i64, i64* @RBP_2328_293da00, align 8
  %281 = sub i64 %280, 96
  %282 = load %struct.Memory*, %struct.Memory** %MEMORY, align 8
  %retval.sroa.0.0.copyload.i.i = load double, double* @XMM0_16_293d8f8, align 1, !tbaa.struct !1324
  %283 = inttoptr i64 %281 to double*
  %284 = inttoptr i64 %281 to double*
  %285 = ptrtoint double* %284 to i64
  store double %retval.sroa.0.0.copyload.i.i, double* %283, align 8
  store volatile %struct.Memory* %282, %struct.Memory** %MEMORY, align 8
  br label %inst_401474

inst_401474:                                      ; preds = %inst_40146f
  %286 = load volatile i64, i64* %NEXT_PC, align 8
  store volatile i64 %286, i64* @RIP_2472_293da00, align 8
  %287 = add i64 %286, 5
  store volatile i64 %287, i64* %NEXT_PC, align 8
  %288 = load i64, i64* %NEXT_PC, align 8
  %289 = load %struct.Memory*, %struct.Memory** %MEMORY, align 8
  store i64 %288, i64* @RIP_2472_293da00, align 8, !tbaa !1290
  store i64 %288, i64* %NEXT_PC, align 8, !tbaa !1290
  store volatile %struct.Memory* %289, %struct.Memory** %MEMORY, align 8
  br label %inst_401479

inst_40147e:                                      ; preds = %inst_401479
  %290 = load volatile i64, i64* %NEXT_PC, align 8
  store volatile i64 %290, i64* @RIP_2472_293da00, align 8
  %291 = add i64 %290, 5
  store volatile i64 %291, i64* %NEXT_PC, align 8
  %292 = load i64, i64* @RBP_2328_293da00, align 8
  %293 = sub i64 %292, 64
  %294 = load %struct.Memory*, %struct.Memory** %MEMORY, align 8
  %retval.sroa.0.0.copyload.i.i96 = load double, double* @XMM0_16_293d8f8, align 1, !tbaa.struct !1324
  %295 = inttoptr i64 %293 to double*
  %296 = inttoptr i64 %293 to double*
  %297 = ptrtoint double* %296 to i64
  store double %retval.sroa.0.0.copyload.i.i96, double* %295, align 8
  store volatile %struct.Memory* %294, %struct.Memory** %MEMORY, align 8
  br label %inst_401483

inst_401483:                                      ; preds = %inst_40147e
  %298 = load volatile i64, i64* %NEXT_PC, align 8
  store volatile i64 %298, i64* @RIP_2472_293da00, align 8
  %299 = add i64 %298, 4
  store volatile i64 %299, i64* %NEXT_PC, align 8
  %300 = load i64, i64* @RBP_2328_293da00, align 8
  %301 = sub i64 %300, 48
  %302 = load %struct.Memory*, %struct.Memory** %MEMORY, align 8
  %303 = inttoptr i64 %301 to i64*
  %304 = inttoptr i64 %301 to i64*
  %305 = ptrtoint i64* %304 to i64
  %306 = load i64, i64* %303, align 8
  store i64 %306, i64* @RAX_2216_293da00, align 8, !tbaa !1290
  store volatile %struct.Memory* %302, %struct.Memory** %MEMORY, align 8
  br label %inst_401487

inst_401487:                                      ; preds = %inst_401483
  %307 = load volatile i64, i64* %NEXT_PC, align 8
  store volatile i64 %307, i64* @RIP_2472_293da00, align 8
  %308 = add i64 %307, 4
  store volatile i64 %308, i64* %NEXT_PC, align 8
  %309 = load i64, i64* @RAX_2216_293da00, align 8
  %310 = load i64, i64* @RBP_2328_293da00, align 8
  %311 = sub i64 %310, 24
  %312 = load %struct.Memory*, %struct.Memory** %MEMORY, align 8
  %313 = inttoptr i64 %311 to i64*
  %314 = inttoptr i64 %311 to i64*
  %315 = ptrtoint i64* %314 to i64
  %316 = load i64, i64* %313, align 8
  %sub.i.i100 = sub i64 %309, %316
  %cmp.i.i.i101 = icmp ugt i64 %316, %309
  %conv.i.i102 = zext i1 %cmp.i.i.i101 to i8
  store i8 %conv.i.i102, i8* @CF_2065_293d9b8, align 1, !tbaa !1294
  %conv.i.i.i.i104 = trunc i64 %sub.i.i100 to i32
  %conv.i.i.i.i.i105 = and i32 %conv.i.i.i.i104, 255
  %317 = call i32 @llvm.ctpop.i32(i32 %conv.i.i.i.i.i105) #14, !range !1308
  %318 = trunc i32 %317 to i8
  %319 = and i8 %318, 1
  %320 = xor i8 %319, 1
  store i8 %320, i8* @PF_2067_293d9b8, align 1, !tbaa !1309
  %xor.i25.i.i.i107 = xor i64 %316, %309
  %xor1.i.i.i.i108 = xor i64 %xor.i25.i.i.i107, %sub.i.i100
  %and.i.i.i.i109 = lshr i64 %xor1.i.i.i.i108, 4
  %321 = trunc i64 %and.i.i.i.i109 to i8
  %322 = and i8 %321, 1
  store i8 %322, i8* @AF_2069_293d9b8, align 1, !tbaa !1310
  %cmp.i24.i.i.i111 = icmp eq i64 %sub.i.i100, 0
  %conv5.i.i.i112 = zext i1 %cmp.i24.i.i.i111 to i8
  store i8 %conv5.i.i.i112, i8* @ZF_2071_293d9b8, align 1, !tbaa !1311
  %res.lobit.i.i.i114 = lshr i64 %sub.i.i100, 63
  %323 = trunc i64 %res.lobit.i.i.i114 to i8
  store i8 %323, i8* @SF_2073_293d9b8, align 1, !tbaa !1312
  %shr.i.i.i.i116 = lshr i64 %309, 63
  %shr1.i.i.i.i = lshr i64 %316, 63
  %xor.i.i.i.i117 = xor i64 %shr1.i.i.i.i, %shr.i.i.i.i116
  %xor3.i.i.i.i118 = xor i64 %res.lobit.i.i.i114, %shr.i.i.i.i116
  %add.i.i.i.i119 = add nuw nsw i64 %xor3.i.i.i.i118, %xor.i.i.i.i117
  %cmp.i.i.i.i120 = icmp eq i64 %add.i.i.i.i119, 2
  %conv11.i.i.i121 = zext i1 %cmp.i.i.i.i120 to i8
  store i8 %conv11.i.i.i121, i8* @OF_2077_293d9b8, align 1, !tbaa !1313
  store volatile %struct.Memory* %312, %struct.Memory** %MEMORY, align 8
  br label %inst_40148b

inst_40148b:                                      ; preds = %inst_401487
  %324 = load volatile i64, i64* %NEXT_PC, align 8
  store volatile i64 %324, i64* @RIP_2472_293da00, align 8
  %325 = add i64 %324, 6
  store volatile i64 %325, i64* %NEXT_PC, align 8
  %326 = load i64, i64* %NEXT_PC, align 8
  %327 = add i64 %326, 35
  %328 = load i64, i64* %NEXT_PC, align 8
  %329 = load %struct.Memory*, %struct.Memory** %MEMORY, align 8
  %330 = load i8, i8* @ZF_2071_293d9b8, align 1, !tbaa !1311
  %tobool.not.i = icmp eq i8 %330, 0
  %frombool.i = zext i1 %tobool.not.i to i8
  store i8 %frombool.i, i8* %BRANCH_TAKEN, align 1, !tbaa !1314
  %cond1.i.i = select i1 %tobool.not.i, i64 %327, i64 %328
  store i64 %cond1.i.i, i64* %NEXT_PC, align 8, !tbaa !1290
  store volatile %struct.Memory* %329, %struct.Memory** %MEMORY, align 8
  %331 = load i8, i8* %BRANCH_TAKEN, align 1
  %332 = icmp eq i8 %331, 1
  br i1 %332, label %333, label %334

333:                                              ; preds = %inst_40148b
  br label %inst_4014b4

334:                                              ; preds = %inst_40148b
  br label %inst_401491

inst_401495:                                      ; preds = %inst_401491
  %335 = load volatile i64, i64* %NEXT_PC, align 8
  store volatile i64 %335, i64* @RIP_2472_293da00, align 8
  %336 = add i64 %335, 5
  store volatile i64 %336, i64* %NEXT_PC, align 8
  %337 = load i64, i64* %NEXT_PC, align 8
  %338 = sub i64 %337, 1082
  %339 = load i64, i64* %NEXT_PC, align 8
  %340 = load %struct.Memory*, %struct.Memory** %MEMORY, align 8
  %341 = load i64, i64* @RSP_2312_293da00, align 8, !tbaa !1314
  %sub.i.i124 = add i64 %341, -8
  %342 = inttoptr i64 %sub.i.i124 to i64*
  %343 = inttoptr i64 %sub.i.i124 to i64*
  %344 = ptrtoint i64* %343 to i64
  store i64 %339, i64* %342, align 8
  store i64 %sub.i.i124, i64* @RSP_2312_293da00, align 8, !tbaa !1290
  store i64 %338, i64* @RIP_2472_293da00, align 8, !tbaa !1290
  store i64 %338, i64* %NEXT_PC, align 8, !tbaa !1290
  store i64 %339, i64* %RETURN_PC, align 8, !tbaa !1290
  store volatile %struct.Memory* %340, %struct.Memory** %MEMORY, align 8
  %345 = load %struct.Memory*, %struct.Memory** %MEMORY, align 8
  %346 = call %struct.Memory* @ext_4041f0__ZSt24__throw_invalid_argumentPKc(%struct.State* @__mcsema_reg_state, i64 undef, %struct.Memory* %345)
  store %struct.Memory* %346, %struct.Memory** %MEMORY, align 8
  store i8* @data_40149a, i8** @RIP_2472_2948dd0, align 8
  store i64 ptrtoint (i8* @data_40149a to i64), i64* %NEXT_PC, align 8
  br label %inst_40149a

inst_40149a:                                      ; preds = %inst_401495
  %347 = load volatile i64, i64* %NEXT_PC, align 8
  store volatile i64 %347, i64* @RIP_2472_293da00, align 8
  %348 = add i64 %347, 5
  store volatile i64 %348, i64* %NEXT_PC, align 8
  %349 = load i64, i64* %NEXT_PC, align 8
  %350 = load %struct.Memory*, %struct.Memory** %MEMORY, align 8
  store i64 %349, i64* @RIP_2472_293da00, align 8, !tbaa !1290
  store i64 %349, i64* %NEXT_PC, align 8, !tbaa !1290
  store volatile %struct.Memory* %350, %struct.Memory** %MEMORY, align 8
  br label %inst_40149f

inst_4014a3:                                      ; preds = %inst_40149f
  %351 = load volatile i64, i64* %NEXT_PC, align 8
  store volatile i64 %351, i64* @RIP_2472_293da00, align 8
  %352 = add i64 %351, 3
  store volatile i64 %352, i64* %NEXT_PC, align 8
  %353 = load i64, i64* @RBP_2328_293da00, align 8
  %354 = sub i64 %353, 76
  %355 = load i32, i32* @RDX_2264_293d9e8, align 4
  %356 = zext i32 %355 to i64
  %357 = load %struct.Memory*, %struct.Memory** %MEMORY, align 8
  %358 = inttoptr i64 %354 to i32*
  %359 = inttoptr i64 %354 to i32*
  %360 = ptrtoint i32* %359 to i64
  store i32 %355, i32* %358, align 4
  store volatile %struct.Memory* %357, %struct.Memory** %MEMORY, align 8
  br label %inst_4014a6

inst_4014a6:                                      ; preds = %inst_4014a3
  %361 = load volatile i64, i64* %NEXT_PC, align 8
  store volatile i64 %361, i64* @RIP_2472_293da00, align 8
  %362 = add i64 %361, 4
  store volatile i64 %362, i64* %NEXT_PC, align 8
  %363 = load i64, i64* @RBP_2328_293da00, align 8
  %364 = sub i64 %363, 56
  %365 = load %struct.Memory*, %struct.Memory** %MEMORY, align 8
  store i64 %364, i64* @RDI_2296_293da00, align 8, !tbaa !1290
  store volatile %struct.Memory* %365, %struct.Memory** %MEMORY, align 8
  br label %inst_4014aa

inst_4014aa:                                      ; preds = %inst_4014a6
  %366 = load volatile i64, i64* %NEXT_PC, align 8
  store volatile i64 %366, i64* @RIP_2472_293da00, align 8
  %367 = add i64 %366, 5
  store volatile i64 %367, i64* %NEXT_PC, align 8
  %368 = load i64, i64* %NEXT_PC, align 8
  %369 = add i64 %368, 273
  %370 = load i64, i64* %NEXT_PC, align 8
  %371 = load %struct.Memory*, %struct.Memory** %MEMORY, align 8
  %372 = load i64, i64* @RSP_2312_293da00, align 8, !tbaa !1314
  %sub.i.i130 = add i64 %372, -8
  %373 = inttoptr i64 %sub.i.i130 to i64*
  %374 = inttoptr i64 %sub.i.i130 to i64*
  %375 = ptrtoint i64* %374 to i64
  store i64 %370, i64* %373, align 8
  store i64 %sub.i.i130, i64* @RSP_2312_293da00, align 8, !tbaa !1290
  store i64 %369, i64* @RIP_2472_293da00, align 8, !tbaa !1290
  store i64 %369, i64* %NEXT_PC, align 8, !tbaa !1290
  store i64 %370, i64* %RETURN_PC, align 8, !tbaa !1290
  store volatile %struct.Memory* %371, %struct.Memory** %MEMORY, align 8
  %376 = load %struct.Memory*, %struct.Memory** %MEMORY, align 8
  %377 = call %struct.Memory* @sub_4015c0__ZZN9__gnu_cxx6__stoaIddcJEEET0_PFT_PKT1_PPS3_DpT2_EPKcS5_PmS9_EN11_Save_errnoD2Ev(%struct.State* @__mcsema_reg_state, i64 undef, %struct.Memory* %376)
  store %struct.Memory* %377, %struct.Memory** %MEMORY, align 8
  store i8* @data_4014af, i8** @RIP_2472_2948dd0, align 8
  store i64 ptrtoint (i8* @data_4014af to i64), i64* %NEXT_PC, align 8
  br label %inst_4014af

inst_4014af:                                      ; preds = %inst_4014aa
  %378 = load volatile i64, i64* %NEXT_PC, align 8
  store volatile i64 %378, i64* @RIP_2472_293da00, align 8
  %379 = add i64 %378, 5
  store volatile i64 %379, i64* %NEXT_PC, align 8
  %380 = load i64, i64* %NEXT_PC, align 8
  %381 = add i64 %380, 152
  %382 = load %struct.Memory*, %struct.Memory** %MEMORY, align 8
  store i64 %381, i64* @RIP_2472_293da00, align 8, !tbaa !1290
  store i64 %381, i64* %NEXT_PC, align 8, !tbaa !1290
  store volatile %struct.Memory* %382, %struct.Memory** %MEMORY, align 8
  br label %inst_40154c

inst_4014b9:                                      ; preds = %inst_4014b4
  %383 = load volatile i64, i64* %NEXT_PC, align 8
  store volatile i64 %383, i64* @RIP_2472_293da00, align 8
  %384 = add i64 %383, 3
  store volatile i64 %384, i64* %NEXT_PC, align 8
  %385 = load i32*, i32** @RAX_2216_294e270, align 8
  %386 = load i32*, i32** @RAX_2216_294e270, align 8
  %387 = load i64, i64* @RAX_2216_293da00, align 8
  %388 = load %struct.Memory*, %struct.Memory** %MEMORY, align 8
  %389 = ptrtoint i32* %386 to i64
  %390 = load i32, i32* %385, align 4
  %sub.i.i139 = sub i32 %390, 34
  %cmp.i.i.i140 = icmp ult i32 %390, 34
  %conv.i12.i = zext i1 %cmp.i.i.i140 to i8
  store i8 %conv.i12.i, i8* @CF_2065_293d9b8, align 1, !tbaa !1294
  %conv.i.i.i.i.i142 = and i32 %sub.i.i139, 255
  %391 = call i32 @llvm.ctpop.i32(i32 %conv.i.i.i.i.i142) #14, !range !1308
  %392 = trunc i32 %391 to i8
  %393 = and i8 %392, 1
  %394 = xor i8 %393, 1
  store i8 %394, i8* @PF_2067_293d9b8, align 1, !tbaa !1309
  %xor.i25.i.i.i144 = xor i32 %390, 34
  %xor1.i.i.i.i145 = xor i32 %xor.i25.i.i.i144, %sub.i.i139
  %and.i.i.i.i146 = lshr i32 %xor1.i.i.i.i145, 4
  %395 = trunc i32 %and.i.i.i.i146 to i8
  %396 = and i8 %395, 1
  store i8 %396, i8* @AF_2069_293d9b8, align 1, !tbaa !1310
  %cmp.i24.i.i.i148 = icmp eq i32 %sub.i.i139, 0
  %conv5.i.i.i149 = zext i1 %cmp.i24.i.i.i148 to i8
  store i8 %conv5.i.i.i149, i8* @ZF_2071_293d9b8, align 1, !tbaa !1311
  %res.lobit.i.i.i151 = lshr i32 %sub.i.i139, 31
  %397 = trunc i32 %res.lobit.i.i.i151 to i8
  store i8 %397, i8* @SF_2073_293d9b8, align 1, !tbaa !1312
  %shr.i.i.i.i153 = lshr i32 %390, 31
  %xor3.i.i.i.i154 = xor i32 %res.lobit.i.i.i151, %shr.i.i.i.i153
  %add.i.i.i.i155 = add nuw nsw i32 %xor3.i.i.i.i154, %shr.i.i.i.i153
  %cmp.i.i.i.i156 = icmp eq i32 %add.i.i.i.i155, 2
  %conv11.i.i.i157 = zext i1 %cmp.i.i.i.i156 to i8
  store i8 %conv11.i.i.i157, i8* @OF_2077_293d9b8, align 1, !tbaa !1313
  store volatile %struct.Memory* %388, %struct.Memory** %MEMORY, align 8
  br label %inst_4014bc

inst_4014bc:                                      ; preds = %inst_4014b9
  %398 = load volatile i64, i64* %NEXT_PC, align 8
  store volatile i64 %398, i64* @RIP_2472_293da00, align 8
  %399 = add i64 %398, 2
  store volatile i64 %399, i64* %NEXT_PC, align 8
  %400 = load %struct.Memory*, %struct.Memory** %MEMORY, align 8
  store i8 1, i8* @RCX_2248_293d9b8, align 1, !tbaa !1314
  store volatile %struct.Memory* %400, %struct.Memory** %MEMORY, align 8
  br label %inst_4014be

inst_4014be:                                      ; preds = %inst_4014bc
  %401 = load volatile i64, i64* %NEXT_PC, align 8
  store volatile i64 %401, i64* @RIP_2472_293da00, align 8
  %402 = add i64 %401, 3
  store volatile i64 %402, i64* %NEXT_PC, align 8
  %403 = load i64, i64* @RBP_2328_293da00, align 8
  %404 = sub i64 %403, 97
  %405 = load i8, i8* @RCX_2248_293d9b8, align 1
  %406 = zext i8 %405 to i64
  %407 = load %struct.Memory*, %struct.Memory** %MEMORY, align 8
  %408 = inttoptr i64 %404 to i8*
  %409 = inttoptr i64 %404 to i8*
  %410 = ptrtoint i8* %409 to i64
  store i8 %405, i8* %408, align 1
  store volatile %struct.Memory* %407, %struct.Memory** %MEMORY, align 8
  br label %inst_4014c1

inst_4014c1:                                      ; preds = %inst_4014be
  %411 = load volatile i64, i64* %NEXT_PC, align 8
  store volatile i64 %411, i64* @RIP_2472_293da00, align 8
  %412 = add i64 %411, 6
  store volatile i64 %412, i64* %NEXT_PC, align 8
  %413 = load i64, i64* %NEXT_PC, align 8
  %414 = add i64 %413, 29
  %415 = load i64, i64* %NEXT_PC, align 8
  %416 = load %struct.Memory*, %struct.Memory** %MEMORY, align 8
  %417 = load i8, i8* @ZF_2071_293d9b8, align 1, !tbaa !1311
  store i8 %417, i8* %BRANCH_TAKEN, align 1, !tbaa !1314
  %tobool.not.i164 = icmp eq i8 %417, 0
  %cond1.i.i165 = select i1 %tobool.not.i164, i64 %415, i64 %414
  store i64 %cond1.i.i165, i64* %NEXT_PC, align 8, !tbaa !1290
  store volatile %struct.Memory* %416, %struct.Memory** %MEMORY, align 8
  %418 = load i8, i8* %BRANCH_TAKEN, align 1
  %419 = icmp eq i8 %418, 1
  br i1 %419, label %420, label %421

420:                                              ; preds = %inst_4014c1
  br label %inst_4014e4

421:                                              ; preds = %inst_4014c1
  br label %inst_4014c7

inst_4014cc:                                      ; preds = %inst_4014c7
  %422 = load volatile i64, i64* %NEXT_PC, align 8
  store volatile i64 %422, i64* @RIP_2472_293da00, align 8
  %423 = add i64 %422, 5
  store volatile i64 %423, i64* %NEXT_PC, align 8
  %424 = load i64, i64* %NEXT_PC, align 8
  %425 = add i64 %424, 207
  %426 = load i64, i64* %NEXT_PC, align 8
  %427 = load %struct.Memory*, %struct.Memory** %MEMORY, align 8
  %428 = load i64, i64* @RSP_2312_293da00, align 8, !tbaa !1314
  %sub.i.i168 = add i64 %428, -8
  %429 = inttoptr i64 %sub.i.i168 to i64*
  %430 = inttoptr i64 %sub.i.i168 to i64*
  %431 = ptrtoint i64* %430 to i64
  store i64 %426, i64* %429, align 8
  store i64 %sub.i.i168, i64* @RSP_2312_293da00, align 8, !tbaa !1290
  store i64 %425, i64* @RIP_2472_293da00, align 8, !tbaa !1290
  store i64 %425, i64* %NEXT_PC, align 8, !tbaa !1290
  store i64 %426, i64* %RETURN_PC, align 8, !tbaa !1290
  store volatile %struct.Memory* %427, %struct.Memory** %MEMORY, align 8
  %432 = load %struct.Memory*, %struct.Memory** %MEMORY, align 8
  %433 = call %struct.Memory* @sub_4015a0__ZZN9__gnu_cxx6__stoaIddcJEEET0_PFT_PKT1_PPS3_DpT2_EPKcS5_PmS9_EN10_Range_chk6_S_chkEdSt17integral_constantIbLb0EE(%struct.State* @__mcsema_reg_state, i64 undef, %struct.Memory* %432)
  store %struct.Memory* %433, %struct.Memory** %MEMORY, align 8
  store i8* @data_4014d1, i8** @RIP_2472_2948dd0, align 8
  store i64 ptrtoint (i8* @data_4014d1 to i64), i64* %NEXT_PC, align 8
  br label %inst_4014d1

inst_4014d1:                                      ; preds = %inst_4014cc
  %434 = load volatile i64, i64* %NEXT_PC, align 8
  store volatile i64 %434, i64* @RIP_2472_293da00, align 8
  %435 = add i64 %434, 3
  store volatile i64 %435, i64* %NEXT_PC, align 8
  %436 = load i64, i64* @RBP_2328_293da00, align 8
  %437 = sub i64 %436, 98
  %438 = load i8, i8* @RAX_2216_293d9b8, align 1
  %439 = zext i8 %438 to i64
  %440 = load %struct.Memory*, %struct.Memory** %MEMORY, align 8
  %441 = inttoptr i64 %437 to i8*
  %442 = inttoptr i64 %437 to i8*
  %443 = ptrtoint i8* %442 to i64
  store i8 %438, i8* %441, align 1
  store volatile %struct.Memory* %440, %struct.Memory** %MEMORY, align 8
  br label %inst_4014d4

inst_4014d4:                                      ; preds = %inst_4014d1
  %444 = load volatile i64, i64* %NEXT_PC, align 8
  store volatile i64 %444, i64* @RIP_2472_293da00, align 8
  %445 = add i64 %444, 5
  store volatile i64 %445, i64* %NEXT_PC, align 8
  %446 = load i64, i64* %NEXT_PC, align 8
  %447 = load %struct.Memory*, %struct.Memory** %MEMORY, align 8
  store i64 %446, i64* @RIP_2472_293da00, align 8, !tbaa !1290
  store i64 %446, i64* %NEXT_PC, align 8, !tbaa !1290
  store volatile %struct.Memory* %447, %struct.Memory** %MEMORY, align 8
  br label %inst_4014d9

inst_4014dc:                                      ; preds = %inst_4014d9
  %448 = load volatile i64, i64* %NEXT_PC, align 8
  store volatile i64 %448, i64* @RIP_2472_293da00, align 8
  %449 = add i64 %448, 3
  store volatile i64 %449, i64* %NEXT_PC, align 8
  %450 = load i64, i64* @RBP_2328_293da00, align 8
  %451 = sub i64 %450, 97
  %452 = load i8, i8* @RAX_2216_293d9b8, align 1
  %453 = zext i8 %452 to i64
  %454 = load %struct.Memory*, %struct.Memory** %MEMORY, align 8
  %455 = inttoptr i64 %451 to i8*
  %456 = inttoptr i64 %451 to i8*
  %457 = ptrtoint i8* %456 to i64
  store i8 %452, i8* %455, align 1
  store volatile %struct.Memory* %454, %struct.Memory** %MEMORY, align 8
  br label %inst_4014df

inst_4014df:                                      ; preds = %inst_4014dc
  %458 = load volatile i64, i64* %NEXT_PC, align 8
  store volatile i64 %458, i64* @RIP_2472_293da00, align 8
  %459 = add i64 %458, 5
  store volatile i64 %459, i64* %NEXT_PC, align 8
  %460 = load i64, i64* %NEXT_PC, align 8
  %461 = load %struct.Memory*, %struct.Memory** %MEMORY, align 8
  store i64 %460, i64* @RIP_2472_293da00, align 8, !tbaa !1290
  store i64 %460, i64* %NEXT_PC, align 8, !tbaa !1290
  store volatile %struct.Memory* %461, %struct.Memory** %MEMORY, align 8
  br label %inst_4014e4

inst_4014e7:                                      ; preds = %inst_4014e4
  %462 = load volatile i64, i64* %NEXT_PC, align 8
  store volatile i64 %462, i64* @RIP_2472_293da00, align 8
  %463 = add i64 %462, 2
  store volatile i64 %463, i64* %NEXT_PC, align 8
  %464 = load i8, i8* @RAX_2216_293d9b8, align 1
  %465 = zext i8 %464 to i64
  %466 = load %struct.Memory*, %struct.Memory** %MEMORY, align 8
  %and3.i12.i = and i64 1, %465
  %and3.i.i = trunc i64 %and3.i12.i to i8
  store i8 0, i8* @CF_2065_293d9b8, align 1, !tbaa !1294
  %467 = trunc i64 %and3.i12.i to i32
  %conv.i.i.i = and i32 %467, 255
  %468 = call i32 @llvm.ctpop.i32(i32 %conv.i.i.i) #14, !range !1308
  %469 = trunc i32 %468 to i8
  %470 = and i8 %469, 1
  %471 = xor i8 %470, 1
  store i8 %471, i8* @PF_2067_293d9b8, align 1, !tbaa !1309
  %cmp.i1.i.i = icmp eq i8 %and3.i.i, 0
  %conv3.i.i = zext i1 %cmp.i1.i.i to i8
  store i8 %conv3.i.i, i8* @ZF_2071_293d9b8, align 1, !tbaa !1311
  %res.lobit.i.i = lshr i8 %and3.i.i, 7
  store i8 %res.lobit.i.i, i8* @SF_2073_293d9b8, align 1, !tbaa !1312
  store i8 0, i8* @OF_2077_293d9b8, align 1, !tbaa !1313
  store i8 0, i8* @AF_2069_293d9b8, align 1, !tbaa !1310
  store volatile %struct.Memory* %466, %struct.Memory** %MEMORY, align 8
  br label %inst_4014e9

inst_4014e9:                                      ; preds = %inst_4014e7
  %472 = load volatile i64, i64* %NEXT_PC, align 8
  store volatile i64 %472, i64* @RIP_2472_293da00, align 8
  %473 = add i64 %472, 6
  store volatile i64 %473, i64* %NEXT_PC, align 8
  %474 = load i64, i64* %NEXT_PC, align 8
  %475 = add i64 %474, 5
  %476 = load i64, i64* %NEXT_PC, align 8
  %477 = load %struct.Memory*, %struct.Memory** %MEMORY, align 8
  %478 = load i8, i8* @ZF_2071_293d9b8, align 1, !tbaa !1311
  %tobool.not.i210 = icmp eq i8 %478, 0
  %frombool.i211 = zext i1 %tobool.not.i210 to i8
  store i8 %frombool.i211, i8* %BRANCH_TAKEN, align 1, !tbaa !1314
  %cond1.i.i212 = select i1 %tobool.not.i210, i64 %475, i64 %476
  store i64 %cond1.i.i212, i64* %NEXT_PC, align 8, !tbaa !1290
  store volatile %struct.Memory* %477, %struct.Memory** %MEMORY, align 8
  %479 = load i8, i8* %BRANCH_TAKEN, align 1
  %480 = icmp eq i8 %479, 1
  br i1 %480, label %481, label %482

481:                                              ; preds = %inst_4014e9
  br label %inst_4014f4

482:                                              ; preds = %inst_4014e9
  br label %inst_4014ef

inst_4014f8:                                      ; preds = %inst_4014f4
  %483 = load volatile i64, i64* %NEXT_PC, align 8
  store volatile i64 %483, i64* @RIP_2472_293da00, align 8
  %484 = add i64 %483, 5
  store volatile i64 %484, i64* %NEXT_PC, align 8
  %485 = load i64, i64* %NEXT_PC, align 8
  %486 = sub i64 %485, 1053
  %487 = load i64, i64* %NEXT_PC, align 8
  %488 = load %struct.Memory*, %struct.Memory** %MEMORY, align 8
  %489 = load i64, i64* @RSP_2312_293da00, align 8, !tbaa !1314
  %sub.i.i215 = add i64 %489, -8
  %490 = inttoptr i64 %sub.i.i215 to i64*
  %491 = inttoptr i64 %sub.i.i215 to i64*
  %492 = ptrtoint i64* %491 to i64
  store i64 %487, i64* %490, align 8
  store i64 %sub.i.i215, i64* @RSP_2312_293da00, align 8, !tbaa !1290
  store i64 %486, i64* @RIP_2472_293da00, align 8, !tbaa !1290
  store i64 %486, i64* %NEXT_PC, align 8, !tbaa !1290
  store i64 %487, i64* %RETURN_PC, align 8, !tbaa !1290
  store volatile %struct.Memory* %488, %struct.Memory** %MEMORY, align 8
  %493 = load %struct.Memory*, %struct.Memory** %MEMORY, align 8
  %494 = call %struct.Memory* @ext_404230__ZSt20__throw_out_of_rangePKc(%struct.State* @__mcsema_reg_state, i64 undef, %struct.Memory* %493)
  store %struct.Memory* %494, %struct.Memory** %MEMORY, align 8
  store i8* @data_4014fd, i8** @RIP_2472_2948dd0, align 8
  store i64 ptrtoint (i8* @data_4014fd to i64), i64* %NEXT_PC, align 8
  br label %inst_4014fd

inst_4014fd:                                      ; preds = %inst_4014f8
  %495 = load volatile i64, i64* %NEXT_PC, align 8
  store volatile i64 %495, i64* @RIP_2472_293da00, align 8
  %496 = add i64 %495, 5
  store volatile i64 %496, i64* %NEXT_PC, align 8
  %497 = load i64, i64* %NEXT_PC, align 8
  %498 = load %struct.Memory*, %struct.Memory** %MEMORY, align 8
  store i64 %497, i64* @RIP_2472_293da00, align 8, !tbaa !1290
  store i64 %497, i64* %NEXT_PC, align 8, !tbaa !1290
  store volatile %struct.Memory* %498, %struct.Memory** %MEMORY, align 8
  br label %inst_401502

inst_401507:                                      ; preds = %inst_401502
  %499 = load volatile i64, i64* %NEXT_PC, align 8
  store volatile i64 %499, i64* @RIP_2472_293da00, align 8
  %500 = add i64 %499, 5
  store volatile i64 %500, i64* %NEXT_PC, align 8
  %501 = load i64, i64* @RBP_2328_293da00, align 8
  %502 = sub i64 %501, 40
  %XMM06 = bitcast [16 x i8]* %XMM0 to i8*
  %503 = load %struct.Memory*, %struct.Memory** %MEMORY, align 8
  %retval.sroa.0.0.copyload.i.i207 = load double, double* @XMM0_16_293d8f8, align 1, !tbaa.struct !1324
  %504 = inttoptr i64 %502 to double*
  %505 = inttoptr i64 %502 to double*
  %506 = ptrtoint double* %505 to i64
  store double %retval.sroa.0.0.copyload.i.i207, double* %504, align 8
  store volatile %struct.Memory* %503, %struct.Memory** %MEMORY, align 8
  br label %inst_40150c

inst_40150c:                                      ; preds = %inst_401507
  %507 = load volatile i64, i64* %NEXT_PC, align 8
  store volatile i64 %507, i64* @RIP_2472_293da00, align 8
  %508 = add i64 %507, 5
  store volatile i64 %508, i64* %NEXT_PC, align 8
  %509 = load i64, i64* %NEXT_PC, align 8
  %510 = load %struct.Memory*, %struct.Memory** %MEMORY, align 8
  store i64 %509, i64* @RIP_2472_293da00, align 8, !tbaa !1290
  store i64 %509, i64* %NEXT_PC, align 8, !tbaa !1290
  store volatile %struct.Memory* %510, %struct.Memory** %MEMORY, align 8
  br label %inst_401511

inst_401516:                                      ; preds = %inst_401511
  %511 = load volatile i64, i64* %NEXT_PC, align 8
  store volatile i64 %511, i64* @RIP_2472_293da00, align 8
  %512 = add i64 %511, 6
  store volatile i64 %512, i64* %NEXT_PC, align 8
  %513 = load i64, i64* %NEXT_PC, align 8
  %514 = add i64 %513, 18
  %515 = load i64, i64* %NEXT_PC, align 8
  %516 = load %struct.Memory*, %struct.Memory** %MEMORY, align 8
  %517 = load i8, i8* @ZF_2071_293d9b8, align 1, !tbaa !1311
  store i8 %517, i8* %BRANCH_TAKEN, align 1, !tbaa !1314
  %tobool.not.i203 = icmp eq i8 %517, 0
  %cond1.i.i204 = select i1 %tobool.not.i203, i64 %515, i64 %514
  store i64 %cond1.i.i204, i64* %NEXT_PC, align 8, !tbaa !1290
  store volatile %struct.Memory* %516, %struct.Memory** %MEMORY, align 8
  %518 = load i8, i8* %BRANCH_TAKEN, align 1
  %519 = icmp eq i8 %518, 1
  br i1 %519, label %520, label %521

520:                                              ; preds = %inst_401516
  br label %inst_40152e

521:                                              ; preds = %inst_401516
  br label %inst_40151c

inst_401520:                                      ; preds = %inst_40151c
  %522 = load volatile i64, i64* %NEXT_PC, align 8
  store volatile i64 %522, i64* @RIP_2472_293da00, align 8
  %523 = add i64 %522, 4
  store volatile i64 %523, i64* %NEXT_PC, align 8
  %524 = load i64, i64* @RBP_2328_293da00, align 8
  %525 = sub i64 %524, 24
  %526 = load %struct.Memory*, %struct.Memory** %MEMORY, align 8
  %527 = inttoptr i64 %525 to i64*
  %528 = inttoptr i64 %525 to i64*
  %529 = ptrtoint i64* %528 to i64
  %530 = load i64, i64* %527, align 8
  store i64 %530, i64* @RCX_2248_293da00, align 8, !tbaa !1290
  store volatile %struct.Memory* %526, %struct.Memory** %MEMORY, align 8
  br label %inst_401524

inst_401524:                                      ; preds = %inst_401520
  %531 = load volatile i64, i64* %NEXT_PC, align 8
  store volatile i64 %531, i64* @RIP_2472_293da00, align 8
  %532 = add i64 %531, 3
  store volatile i64 %532, i64* %NEXT_PC, align 8
  %533 = load i64, i64* @RAX_2216_293da00, align 8
  %534 = load i64, i64* @RCX_2248_293da00, align 8
  %535 = load %struct.Memory*, %struct.Memory** %MEMORY, align 8
  %sub.i.i176 = sub i64 %533, %534
  store i64 %sub.i.i176, i64* @RAX_2216_293da00, align 8, !tbaa !1290
  %cmp.i.i.i177 = icmp ult i64 %533, %534
  %conv.i.i178 = zext i1 %cmp.i.i.i177 to i8
  store i8 %conv.i.i178, i8* @CF_2065_293d9b8, align 1, !tbaa !1294
  %conv.i.i.i.i180 = trunc i64 %sub.i.i176 to i32
  %conv.i.i.i.i.i181 = and i32 %conv.i.i.i.i180, 255
  %536 = call i32 @llvm.ctpop.i32(i32 %conv.i.i.i.i.i181) #14, !range !1308
  %537 = trunc i32 %536 to i8
  %538 = and i8 %537, 1
  %539 = xor i8 %538, 1
  store i8 %539, i8* @PF_2067_293d9b8, align 1, !tbaa !1309
  %xor.i25.i.i.i183 = xor i64 %534, %533
  %xor1.i.i.i.i184 = xor i64 %xor.i25.i.i.i183, %sub.i.i176
  %and.i.i.i.i185 = lshr i64 %xor1.i.i.i.i184, 4
  %540 = trunc i64 %and.i.i.i.i185 to i8
  %541 = and i8 %540, 1
  store i8 %541, i8* @AF_2069_293d9b8, align 1, !tbaa !1310
  %cmp.i24.i.i.i187 = icmp eq i64 %sub.i.i176, 0
  %conv5.i.i.i188 = zext i1 %cmp.i24.i.i.i187 to i8
  store i8 %conv5.i.i.i188, i8* @ZF_2071_293d9b8, align 1, !tbaa !1311
  %res.lobit.i.i.i190 = lshr i64 %sub.i.i176, 63
  %542 = trunc i64 %res.lobit.i.i.i190 to i8
  store i8 %542, i8* @SF_2073_293d9b8, align 1, !tbaa !1312
  %shr.i.i.i.i192 = lshr i64 %533, 63
  %shr1.i.i.i.i193 = lshr i64 %534, 63
  %xor.i.i.i.i194 = xor i64 %shr1.i.i.i.i193, %shr.i.i.i.i192
  %xor3.i.i.i.i195 = xor i64 %res.lobit.i.i.i190, %shr.i.i.i.i192
  %add.i.i.i.i196 = add nuw nsw i64 %xor3.i.i.i.i195, %xor.i.i.i.i194
  %cmp.i.i.i.i197 = icmp eq i64 %add.i.i.i.i196, 2
  %conv11.i.i.i198 = zext i1 %cmp.i.i.i.i197 to i8
  store i8 %conv11.i.i.i198, i8* @OF_2077_293d9b8, align 1, !tbaa !1313
  store volatile %struct.Memory* %535, %struct.Memory** %MEMORY, align 8
  br label %inst_401527

inst_401527:                                      ; preds = %inst_401524
  %543 = load volatile i64, i64* %NEXT_PC, align 8
  store volatile i64 %543, i64* @RIP_2472_293da00, align 8
  %544 = add i64 %543, 4
  store volatile i64 %544, i64* %NEXT_PC, align 8
  %545 = load i64, i64* @RBP_2328_293da00, align 8
  %546 = sub i64 %545, 32
  %547 = load %struct.Memory*, %struct.Memory** %MEMORY, align 8
  %548 = inttoptr i64 %546 to i64*
  %549 = inttoptr i64 %546 to i64*
  %550 = ptrtoint i64* %549 to i64
  %551 = load i64, i64* %548, align 8
  store i64 %551, i64* @RCX_2248_293da00, align 8, !tbaa !1290
  store volatile %struct.Memory* %547, %struct.Memory** %MEMORY, align 8
  br label %inst_40152b

inst_40152b:                                      ; preds = %inst_401527
  %552 = load volatile i64, i64* %NEXT_PC, align 8
  store volatile i64 %552, i64* @RIP_2472_293da00, align 8
  %553 = add i64 %552, 3
  store volatile i64 %553, i64* %NEXT_PC, align 8
  %554 = load i64*, i64** @RCX_2248_2948f30, align 8
  %555 = load i64*, i64** @RCX_2248_2948f30, align 8
  %556 = load i64, i64* @RCX_2248_293da00, align 8
  %557 = load i64, i64* @RAX_2216_293da00, align 8
  %558 = load %struct.Memory*, %struct.Memory** %MEMORY, align 8
  %559 = ptrtoint i64* %555 to i64
  store i64 %557, i64* %554, align 8
  store volatile %struct.Memory* %558, %struct.Memory** %MEMORY, align 8
  br label %inst_40152e

inst_401533:                                      ; preds = %inst_40152e
  %560 = load volatile i64, i64* %NEXT_PC, align 8
  store volatile i64 %560, i64* @RIP_2472_293da00, align 8
  %561 = add i64 %560, 4
  store volatile i64 %561, i64* %NEXT_PC, align 8
  %562 = load i64, i64* @RBP_2328_293da00, align 8
  %563 = sub i64 %562, 56
  %564 = load %struct.Memory*, %struct.Memory** %MEMORY, align 8
  store i64 %563, i64* @RDI_2296_293da00, align 8, !tbaa !1290
  store volatile %struct.Memory* %564, %struct.Memory** %MEMORY, align 8
  br label %inst_401537

inst_401537:                                      ; preds = %inst_401533
  %565 = load volatile i64, i64* %NEXT_PC, align 8
  store volatile i64 %565, i64* @RIP_2472_293da00, align 8
  %566 = add i64 %565, 5
  store volatile i64 %566, i64* %NEXT_PC, align 8
  %567 = load i64, i64* @RBP_2328_293da00, align 8
  %568 = sub i64 %567, 112
  %569 = load %struct.Memory*, %struct.Memory** %MEMORY, align 8
  %retval.sroa.0.0.copyload.i.i160 = load double, double* @XMM0_16_293d8f8, align 1, !tbaa.struct !1324
  %570 = inttoptr i64 %568 to double*
  %571 = inttoptr i64 %568 to double*
  %572 = ptrtoint double* %571 to i64
  store double %retval.sroa.0.0.copyload.i.i160, double* %570, align 8
  store volatile %struct.Memory* %569, %struct.Memory** %MEMORY, align 8
  br label %inst_40153c

inst_40153c:                                      ; preds = %inst_401537
  %573 = load volatile i64, i64* %NEXT_PC, align 8
  store volatile i64 %573, i64* @RIP_2472_293da00, align 8
  %574 = add i64 %573, 5
  store volatile i64 %574, i64* %NEXT_PC, align 8
  %575 = load i64, i64* %NEXT_PC, align 8
  %576 = add i64 %575, 127
  %577 = load i64, i64* %NEXT_PC, align 8
  %578 = load %struct.Memory*, %struct.Memory** %MEMORY, align 8
  %579 = load i64, i64* @RSP_2312_293da00, align 8, !tbaa !1314
  %sub.i.i135 = add i64 %579, -8
  %580 = inttoptr i64 %sub.i.i135 to i64*
  %581 = inttoptr i64 %sub.i.i135 to i64*
  %582 = ptrtoint i64* %581 to i64
  store i64 %577, i64* %580, align 8
  store i64 %sub.i.i135, i64* @RSP_2312_293da00, align 8, !tbaa !1290
  store i64 %576, i64* @RIP_2472_293da00, align 8, !tbaa !1290
  store i64 %576, i64* %NEXT_PC, align 8, !tbaa !1290
  store i64 %577, i64* %RETURN_PC, align 8, !tbaa !1290
  store volatile %struct.Memory* %578, %struct.Memory** %MEMORY, align 8
  %583 = load %struct.Memory*, %struct.Memory** %MEMORY, align 8
  %584 = call %struct.Memory* @sub_4015c0__ZZN9__gnu_cxx6__stoaIddcJEEET0_PFT_PKT1_PPS3_DpT2_EPKcS5_PmS9_EN11_Save_errnoD2Ev(%struct.State* @__mcsema_reg_state, i64 undef, %struct.Memory* %583)
  store %struct.Memory* %584, %struct.Memory** %MEMORY, align 8
  store i8* @data_401541, i8** @RIP_2472_2948dd0, align 8
  store i64 ptrtoint (i8* @data_401541 to i64), i64* %NEXT_PC, align 8
  br label %inst_401541

inst_401541:                                      ; preds = %inst_40153c
  %585 = load volatile i64, i64* %NEXT_PC, align 8
  store volatile i64 %585, i64* @RIP_2472_293da00, align 8
  %586 = add i64 %585, 5
  store volatile i64 %586, i64* %NEXT_PC, align 8
  %587 = load i64, i64* @RBP_2328_293da00, align 8
  %588 = sub i64 %587, 112
  %589 = load %struct.Memory*, %struct.Memory** %MEMORY, align 8
  %590 = inttoptr i64 %588 to double*
  %591 = inttoptr i64 %588 to double*
  %592 = ptrtoint double* %591 to i64
  %593 = load double, double* %590, align 8
  store double %593, double* @XMM0_16_293d8f8, align 1, !tbaa !1316
  store double 0.000000e+00, double* @XMM0_24_293d8f8, align 1, !tbaa !1316
  store volatile %struct.Memory* %589, %struct.Memory** %MEMORY, align 8
  br label %inst_401546

inst_401546:                                      ; preds = %inst_401541
  %594 = load volatile i64, i64* %NEXT_PC, align 8
  store volatile i64 %594, i64* @RIP_2472_293da00, align 8
  %595 = add i64 %594, 4
  store volatile i64 %595, i64* %NEXT_PC, align 8
  %596 = load i64, i64* @RSP_2312_293da00, align 8
  %597 = load %struct.Memory*, %struct.Memory** %MEMORY, align 8
  %add.i.i65 = add i64 112, %596
  store i64 %add.i.i65, i64* @RSP_2312_293da00, align 8, !tbaa !1290
  %cmp.i.i.i66 = icmp ult i64 %add.i.i65, %596
  %cmp1.i.i.i = icmp ult i64 %add.i.i65, 112
  %598 = or i1 %cmp.i.i.i66, %cmp1.i.i.i
  %conv.i.i67 = zext i1 %598 to i8
  store i8 %conv.i.i67, i8* @CF_2065_293d9b8, align 1, !tbaa !1294
  %conv.i.i.i.i69 = trunc i64 %add.i.i65 to i32
  %conv.i.i.i.i.i70 = and i32 %conv.i.i.i.i69, 255
  %599 = call i32 @llvm.ctpop.i32(i32 %conv.i.i.i.i.i70) #14, !range !1308
  %600 = trunc i32 %599 to i8
  %601 = and i8 %600, 1
  %602 = xor i8 %601, 1
  store i8 %602, i8* @PF_2067_293d9b8, align 1, !tbaa !1309
  %xor.i25.i.i.i72 = xor i64 112, %596
  %xor1.i.i.i.i73 = xor i64 %xor.i25.i.i.i72, %add.i.i65
  %and.i.i.i.i74 = lshr i64 %xor1.i.i.i.i73, 4
  %603 = trunc i64 %and.i.i.i.i74 to i8
  %604 = and i8 %603, 1
  store i8 %604, i8* @AF_2069_293d9b8, align 1, !tbaa !1310
  %cmp.i24.i.i.i76 = icmp eq i64 %add.i.i65, 0
  %conv5.i.i.i77 = zext i1 %cmp.i24.i.i.i76 to i8
  store i8 %conv5.i.i.i77, i8* @ZF_2071_293d9b8, align 1, !tbaa !1311
  %res.lobit.i.i.i79 = lshr i64 %add.i.i65, 63
  %605 = trunc i64 %res.lobit.i.i.i79 to i8
  store i8 %605, i8* @SF_2073_293d9b8, align 1, !tbaa !1312
  %shr.i.i.i.i81 = lshr i64 %596, 63
  %xor.i.i.i.i = xor i64 %res.lobit.i.i.i79, %shr.i.i.i.i81
  %add.i.i.i.i82 = add nuw nsw i64 %xor.i.i.i.i, %res.lobit.i.i.i79
  %cmp.i.i.i.i83 = icmp eq i64 %add.i.i.i.i82, 2
  %conv11.i.i.i84 = zext i1 %cmp.i.i.i.i83 to i8
  store i8 %conv11.i.i.i84, i8* @OF_2077_293d9b8, align 1, !tbaa !1313
  store volatile %struct.Memory* %597, %struct.Memory** %MEMORY, align 8
  br label %inst_40154a

inst_40154a:                                      ; preds = %inst_401546
  %606 = load volatile i64, i64* %NEXT_PC, align 8
  store volatile i64 %606, i64* @RIP_2472_293da00, align 8
  %607 = add i64 %606, 1
  store volatile i64 %607, i64* %NEXT_PC, align 8
  %608 = load %struct.Memory*, %struct.Memory** %MEMORY, align 8
  %609 = load i64*, i64** @RSP_2312_2948f30, align 8
  %610 = load i64*, i64** @RSP_2312_2948f30, align 8
  %611 = load i64, i64* @RSP_2312_293da00, align 8, !tbaa !1314
  %add.i.i57 = add i64 %611, 8
  store i64 %add.i.i57, i64* @RSP_2312_293da00, align 8, !tbaa !1290
  %612 = ptrtoint i64* %610 to i64
  %613 = load i64, i64* %609, align 8
  store i64 %613, i64* @RBP_2328_293da00, align 8, !tbaa !1290
  store volatile %struct.Memory* %608, %struct.Memory** %MEMORY, align 8
  br label %inst_40154b

inst_40154b:                                      ; preds = %inst_40154a
  %614 = load volatile i64, i64* %NEXT_PC, align 8
  store volatile i64 %614, i64* @RIP_2472_293da00, align 8
  %615 = add i64 %614, 1
  store volatile i64 %615, i64* %NEXT_PC, align 8
  %616 = load %struct.Memory*, %struct.Memory** %MEMORY, align 8
  %617 = load i64*, i64** @RSP_2312_2948f30, align 8
  %618 = load i64*, i64** @RSP_2312_2948f30, align 8
  %619 = load i64, i64* @RSP_2312_293da00, align 8, !tbaa !1314
  %620 = ptrtoint i64* %618 to i64
  %621 = load i64, i64* %617, align 8
  store i64 %621, i64* @RIP_2472_293da00, align 8, !tbaa !1290
  store i64 %621, i64* %NEXT_PC, align 8, !tbaa !1290
  %622 = load i64, i64* @RSP_2312_293da00, align 8, !tbaa !1314
  %add.i.i = add i64 %622, 8
  store i64 %add.i.i, i64* @RSP_2312_293da00, align 8, !tbaa !1290
  store volatile %struct.Memory* %616, %struct.Memory** %MEMORY, align 8
  %623 = load %struct.Memory*, %struct.Memory** %MEMORY, align 8
  ret %struct.Memory* %623

inst_401550:                                      ; preds = %inst_40154c
  %624 = load volatile i64, i64* %NEXT_PC, align 8
  store volatile i64 %624, i64* @RIP_2472_293da00, align 8
  %625 = add i64 %624, 5
  store volatile i64 %625, i64* %NEXT_PC, align 8
  %626 = load i64, i64* %NEXT_PC, align 8
  %627 = sub i64 %626, 1093
  %628 = load i64, i64* %NEXT_PC, align 8
  %629 = load %struct.Memory*, %struct.Memory** %MEMORY, align 8
  %630 = load i64, i64* @RSP_2312_293da00, align 8, !tbaa !1314
  %sub.i.i30 = add i64 %630, -8
  %631 = inttoptr i64 %sub.i.i30 to i64*
  %632 = inttoptr i64 %sub.i.i30 to i64*
  %633 = ptrtoint i64* %632 to i64
  store i64 %628, i64* %631, align 8
  store i64 %sub.i.i30, i64* @RSP_2312_293da00, align 8, !tbaa !1290
  store i64 %627, i64* @RIP_2472_293da00, align 8, !tbaa !1290
  store i64 %627, i64* %NEXT_PC, align 8, !tbaa !1290
  store i64 %628, i64* %RETURN_PC, align 8, !tbaa !1290
  store volatile %struct.Memory* %629, %struct.Memory** %MEMORY, align 8
  %634 = load %struct.Memory*, %struct.Memory** %MEMORY, align 8
  %635 = call %struct.Memory* @ext_404240__Unwind_Resume(%struct.State* @__mcsema_reg_state, i64 undef, %struct.Memory* %634)
  store %struct.Memory* %635, %struct.Memory** %MEMORY, align 8
  store i8* @data_401555, i8** @RIP_2472_2948dd0, align 8
  store i64 ptrtoint (i8* @data_401555 to i64), i64* %NEXT_PC, align 8
  br label %inst_401555

inst_401555:                                      ; preds = %inst_401550
  %636 = load volatile i64, i64* %NEXT_PC, align 8
  store volatile i64 %636, i64* @RIP_2472_293da00, align 8
  %637 = add i64 %636, 10
  store volatile i64 %637, i64* %NEXT_PC, align 8
  %638 = load i64, i64* @RAX_2216_293da00, align 8
  %639 = load i64, i64* @RAX_2216_293da00, align 8
  %640 = mul i64 %639, 1
  %641 = add i64 %638, %640
  %642 = load i16, i16* @RAX_2216_293d9d0, align 2
  %643 = zext i16 %642 to i64
  %644 = load %struct.Memory*, %struct.Memory** %MEMORY, align 8
  store volatile %struct.Memory* %644, %struct.Memory** %MEMORY, align 8
  br label %inst_40155f

inst_40155f:                                      ; preds = %inst_401555
  %645 = load volatile i64, i64* %NEXT_PC, align 8
  store volatile i64 %645, i64* @RIP_2472_293da00, align 8
  %646 = add i64 %645, 1
  store volatile i64 %646, i64* %NEXT_PC, align 8
  %647 = load %struct.Memory*, %struct.Memory** %MEMORY, align 8
  store volatile %struct.Memory* %647, %struct.Memory** %MEMORY, align 8
  %648 = load %struct.Memory*, %struct.Memory** %MEMORY, align 8
  ret %struct.Memory* %648
}

; Function Attrs: noinline
define internal %struct.Memory* @sub_401290_main(%struct.State* noalias nonnull align 1 %state, i64 %pc, %struct.Memory* noalias %memory) #10 {
  %1 = getelementptr inbounds %struct.State, %struct.State* %state, i32 0, i32 6, i32 7, i32 0, i32 0
  %2 = getelementptr inbounds %struct.State, %struct.State* %state, i32 0, i32 1, i32 0, i32 0, i32 0, i32 0, i32 0
  %XMM0 = bitcast i64* %2 to [16 x i8]*, !remill_register !1315
  %RSI = getelementptr inbounds %struct.State, %struct.State* %state, i32 0, i32 6, i32 9, i32 0, i32 0, !remill_register !1325
  %BRANCH_TAKEN = alloca i8, align 1
  %RETURN_PC = alloca i64, align 8
  %MONITOR = alloca i64, align 8
  %STATE = alloca %struct.State*, align 8
  store %struct.State* @__mcsema_reg_state, %struct.State** %STATE, align 8
  %MEMORY = alloca %struct.Memory*, align 8
  store %struct.Memory* %memory, %struct.Memory** %MEMORY, align 8
  %NEXT_PC = alloca i64, align 8
  store volatile i64 %pc, i64* %NEXT_PC, align 8
  %ESBASE = alloca i64, align 8
  store volatile i64 0, i64* %ESBASE, align 8
  %DSBASE = alloca i64, align 8
  store volatile i64 0, i64* %DSBASE, align 8
  %CSBASE = alloca i64, align 8
  store volatile i64 0, i64* %CSBASE, align 8
  %SSBASE = alloca i64, align 8
  store volatile i64 0, i64* %SSBASE, align 8
  store i64 ptrtoint (i32 (i32, i8**, i8**)* @main to i64), i64* %NEXT_PC, align 8
  store i32 (i32, i8**, i8**)* @main, i32 (i32, i8**, i8**)** @RIP_2472_2af2220, align 8
  %stack_ptr_var = alloca i64, i64 1, align 8
  %frame_ptr_var = alloca i64, i64 1, align 8
  br label %inst_401290

inst_401320:                                      ; preds = %inst_40131b
  %3 = load volatile i64, i64* %NEXT_PC, align 8
  store volatile i64 %3, i64* @RIP_2472_293da00, align 8
  %4 = add i64 %3, 4
  store volatile i64 %4, i64* %NEXT_PC, align 8
  %5 = load i64, i64* @RBP_2328_293da00, align 8
  %6 = sub i64 %5, 112
  %7 = load %struct.Memory*, %struct.Memory** %MEMORY, align 8
  store i64 %6, i64* @RDI_2296_293da00, align 8, !tbaa !1290
  store volatile %struct.Memory* %7, %struct.Memory** %MEMORY, align 8
  br label %inst_401324

inst_4013e1:                                      ; preds = %inst_4013dc, %inst_4013cc, %inst_4013b7
  %8 = load volatile i64, i64* %NEXT_PC, align 8
  store volatile i64 %8, i64* @RIP_2472_293da00, align 8
  %9 = add i64 %8, 4
  store volatile i64 %9, i64* %NEXT_PC, align 8
  %10 = load i64, i64* @RBP_2328_293da00, align 8
  %11 = sub i64 %10, 40
  %12 = load %struct.Memory*, %struct.Memory** %MEMORY, align 8
  store i64 %11, i64* @RDI_2296_293da00, align 8, !tbaa !1290
  store volatile %struct.Memory* %12, %struct.Memory** %MEMORY, align 8
  br label %inst_4013e5

inst_401360:                                      ; preds = %inst_40135b
  %13 = load volatile i64, i64* %NEXT_PC, align 8
  store volatile i64 %13, i64* @RIP_2472_293da00, align 8
  %14 = add i64 %13, 5
  store volatile i64 %14, i64* %NEXT_PC, align 8
  %15 = load %struct.Memory*, %struct.Memory** %MEMORY, align 8
  store i64 (i64, i64)* @_ZSt4endlIcSt11char_traitsIcEERSt13basic_ostreamIT_T0_ES6_, i64 (i64, i64)** @RSI_2280_37b08d0, align 8
  store volatile %struct.Memory* %15, %struct.Memory** %MEMORY, align 8
  br label %inst_401365

inst_401346:                                      ; preds = %inst_401341
  %16 = load volatile i64, i64* %NEXT_PC, align 8
  store volatile i64 %16, i64* @RIP_2472_293da00, align 8
  %17 = add i64 %16, 5
  store volatile i64 %17, i64* %NEXT_PC, align 8
  %18 = load %struct.Memory*, %struct.Memory** %MEMORY, align 8
  store i8* @_ZSt4cout, i8** @RDI_2296_2948dd0, align 8
  store volatile %struct.Memory* %18, %struct.Memory** %MEMORY, align 8
  br label %inst_40134b

inst_4012c9:                                      ; preds = %inst_4012c4
  %19 = load volatile i64, i64* %NEXT_PC, align 8
  store volatile i64 %19, i64* @RIP_2472_293da00, align 8
  %20 = add i64 %19, 4
  store volatile i64 %20, i64* %NEXT_PC, align 8
  %21 = load i64, i64* @RBP_2328_293da00, align 8
  %22 = sub i64 %21, 48
  %23 = load %struct.Memory*, %struct.Memory** %MEMORY, align 8
  store i64 %22, i64* @RDI_2296_293da00, align 8, !tbaa !1290
  store volatile %struct.Memory* %23, %struct.Memory** %MEMORY, align 8
  br label %inst_4012cd

inst_4012e9:                                      ; preds = %inst_4012e4
  %24 = load volatile i64, i64* %NEXT_PC, align 8
  store volatile i64 %24, i64* @RIP_2472_293da00, align 8
  %25 = add i64 %24, 5
  store volatile i64 %25, i64* %NEXT_PC, align 8
  %XMM02 = bitcast [16 x i8]* %XMM0 to i8*
  %26 = load i64, i64* @RBP_2328_293da00, align 8
  %27 = sub i64 %26, 128
  %28 = load %struct.Memory*, %struct.Memory** %MEMORY, align 8
  %29 = inttoptr i64 %27 to double*
  %30 = inttoptr i64 %27 to double*
  %31 = ptrtoint double* %30 to i64
  %32 = load double, double* %29, align 8
  store double %32, double* @XMM0_16_293d8f8, align 1, !tbaa !1316
  %arrayidx2.i.i = getelementptr inbounds i8, i8* %XMM02, i64 8
  store double 0.000000e+00, double* @XMM0_24_293d8f8, align 1, !tbaa !1316
  store volatile %struct.Memory* %28, %struct.Memory** %MEMORY, align 8
  br label %inst_4012ee

inst_4013ea:                                      ; preds = %inst_4013e5, %inst_4013ab
  %33 = load volatile i64, i64* %NEXT_PC, align 8
  store volatile i64 %33, i64* @RIP_2472_293da00, align 8
  %34 = add i64 %33, 4
  store volatile i64 %34, i64* %NEXT_PC, align 8
  %35 = load i64, i64* @RBP_2328_293da00, align 8
  %36 = sub i64 %35, 56
  %37 = load %struct.Memory*, %struct.Memory** %MEMORY, align 8
  %38 = inttoptr i64 %36 to i64*
  %39 = inttoptr i64 %36 to i64*
  %40 = ptrtoint i64* %39 to i64
  %41 = load i64, i64* %38, align 8
  store i64 %41, i64* @RDI_2296_293da00, align 8, !tbaa !1290
  store volatile %struct.Memory* %37, %struct.Memory** %MEMORY, align 8
  br label %inst_4013ee

inst_401290:                                      ; preds = %0
  %42 = load volatile i64, i64* %NEXT_PC, align 8
  store volatile i64 %42, i64* @RIP_2472_293da00, align 8
  %43 = add i64 %42, 1
  store volatile i64 %43, i64* %NEXT_PC, align 8
  %44 = load i64, i64* @RBP_2328_293da00, align 8
  %45 = load %struct.Memory*, %struct.Memory** %MEMORY, align 8
  %46 = load i64, i64* @RSP_2312_293da00, align 8, !tbaa !1314
  %sub.i.i.i = add i64 %46, -8
  %47 = inttoptr i64 %sub.i.i.i to i64*
  %48 = inttoptr i64 %sub.i.i.i to i64*
  %49 = ptrtoint i64* %48 to i64
  store i64 %44, i64* %47, align 8
  store i64 %sub.i.i.i, i64* @RSP_2312_293da00, align 8, !tbaa !1290
  store volatile %struct.Memory* %45, %struct.Memory** %MEMORY, align 8
  br label %inst_401291

inst_4013b0:                                      ; No predecessors!
  %50 = load volatile i64, i64* %NEXT_PC, align 8
  store volatile i64 %50, i64* @RIP_2472_293da00, align 8
  %51 = add i64 %50, 4
  store volatile i64 %51, i64* %NEXT_PC, align 8
  %52 = load i64, i64* @RBP_2328_293da00, align 8
  %53 = sub i64 %52, 56
  %54 = load i64, i64* @RAX_2216_293da00, align 8
  %55 = load %struct.Memory*, %struct.Memory** %MEMORY, align 8
  %56 = inttoptr i64 %53 to i64*
  %57 = inttoptr i64 %53 to i64*
  %58 = ptrtoint i64* %57 to i64
  store i64 %54, i64* %56, align 8
  store volatile %struct.Memory* %55, %struct.Memory** %MEMORY, align 8
  br label %inst_4013b4

inst_4013d1:                                      ; No predecessors!
  %59 = load volatile i64, i64* %NEXT_PC, align 8
  store volatile i64 %59, i64* @RIP_2472_293da00, align 8
  %60 = add i64 %59, 4
  store volatile i64 %60, i64* %NEXT_PC, align 8
  %61 = load i64, i64* @RBP_2328_293da00, align 8
  %62 = sub i64 %61, 56
  %63 = load i64, i64* @RAX_2216_293da00, align 8
  %64 = load %struct.Memory*, %struct.Memory** %MEMORY, align 8
  %65 = inttoptr i64 %62 to i64*
  %66 = inttoptr i64 %62 to i64*
  %67 = ptrtoint i64* %66 to i64
  store i64 %63, i64* %65, align 8
  store volatile %struct.Memory* %64, %struct.Memory** %MEMORY, align 8
  br label %inst_4013d5

inst_401376:                                      ; preds = %inst_401371
  %68 = load volatile i64, i64* %NEXT_PC, align 8
  store volatile i64 %68, i64* @RIP_2472_293da00, align 8
  %69 = add i64 %68, 7
  store volatile i64 %69, i64* %NEXT_PC, align 8
  %70 = load i64, i64* @RBP_2328_293da00, align 8
  %71 = sub i64 %70, 4
  %72 = load %struct.Memory*, %struct.Memory** %MEMORY, align 8
  %73 = inttoptr i64 %71 to i32*
  %74 = inttoptr i64 %71 to i32*
  %75 = ptrtoint i32* %74 to i64
  store i32 0, i32* %73, align 4
  store volatile %struct.Memory* %72, %struct.Memory** %MEMORY, align 8
  br label %inst_40137d

inst_40139b:                                      ; No predecessors!
  %76 = load volatile i64, i64* %NEXT_PC, align 8
  store volatile i64 %76, i64* @RIP_2472_293da00, align 8
  %77 = add i64 %76, 4
  store volatile i64 %77, i64* %NEXT_PC, align 8
  %78 = load i64, i64* @RBP_2328_293da00, align 8
  %79 = sub i64 %78, 56
  %80 = load i64, i64* @RAX_2216_293da00, align 8
  %81 = load %struct.Memory*, %struct.Memory** %MEMORY, align 8
  %82 = inttoptr i64 %79 to i64*
  %83 = inttoptr i64 %79 to i64*
  %84 = ptrtoint i64* %83 to i64
  store i64 %80, i64* %82, align 8
  store volatile %struct.Memory* %81, %struct.Memory** %MEMORY, align 8
  br label %inst_40139f

inst_4013bc:                                      ; No predecessors!
  %85 = load volatile i64, i64* %NEXT_PC, align 8
  store volatile i64 %85, i64* @RIP_2472_293da00, align 8
  %86 = add i64 %85, 4
  store volatile i64 %86, i64* %NEXT_PC, align 8
  %87 = load i64, i64* @RBP_2328_293da00, align 8
  %88 = sub i64 %87, 56
  %89 = load i64, i64* @RAX_2216_293da00, align 8
  %90 = load %struct.Memory*, %struct.Memory** %MEMORY, align 8
  %91 = inttoptr i64 %88 to i64*
  %92 = inttoptr i64 %88 to i64*
  %93 = ptrtoint i64* %92 to i64
  store i64 %89, i64* %91, align 8
  store volatile %struct.Memory* %90, %struct.Memory** %MEMORY, align 8
  br label %inst_4013c0

inst_401291:                                      ; preds = %inst_401290
  %94 = load volatile i64, i64* %NEXT_PC, align 8
  store volatile i64 %94, i64* @RIP_2472_293da00, align 8
  %95 = add i64 %94, 3
  store volatile i64 %95, i64* %NEXT_PC, align 8
  %96 = load i64, i64* @RSP_2312_293da00, align 8
  %97 = load %struct.Memory*, %struct.Memory** %MEMORY, align 8
  store i64 %96, i64* @RBP_2328_293da00, align 8, !tbaa !1290
  store volatile %struct.Memory* %97, %struct.Memory** %MEMORY, align 8
  br label %inst_401294

inst_401294:                                      ; preds = %inst_401291
  %98 = load volatile i64, i64* %NEXT_PC, align 8
  store volatile i64 %98, i64* @RIP_2472_293da00, align 8
  %99 = add i64 %98, 7
  store volatile i64 %99, i64* %NEXT_PC, align 8
  %100 = load i64, i64* @RSP_2312_293da00, align 8
  %101 = load %struct.Memory*, %struct.Memory** %MEMORY, align 8
  %sub.i.i19 = sub i64 %100, 144
  store i64 %sub.i.i19, i64* @RSP_2312_293da00, align 8, !tbaa !1290
  %cmp.i.i.i = icmp ult i64 %100, 144
  %conv.i.i = zext i1 %cmp.i.i.i to i8
  store i8 %conv.i.i, i8* @CF_2065_293d9b8, align 1, !tbaa !1294
  %conv.i.i.i.i = trunc i64 %sub.i.i19 to i32
  %conv.i.i.i.i.i = and i32 %conv.i.i.i.i, 255
  %102 = call i32 @llvm.ctpop.i32(i32 %conv.i.i.i.i.i) #14, !range !1308
  %103 = trunc i32 %102 to i8
  %104 = and i8 %103, 1
  %105 = xor i8 %104, 1
  store i8 %105, i8* @PF_2067_293d9b8, align 1, !tbaa !1309
  %xor.i25.i.i.i = xor i64 144, %100
  %xor1.i.i.i.i = xor i64 %xor.i25.i.i.i, %sub.i.i19
  %and.i.i.i.i = lshr i64 %xor1.i.i.i.i, 4
  %106 = trunc i64 %and.i.i.i.i to i8
  %107 = and i8 %106, 1
  store i8 %107, i8* @AF_2069_293d9b8, align 1, !tbaa !1310
  %cmp.i24.i.i.i = icmp eq i64 %sub.i.i19, 0
  %conv5.i.i.i = zext i1 %cmp.i24.i.i.i to i8
  store i8 %conv5.i.i.i, i8* @ZF_2071_293d9b8, align 1, !tbaa !1311
  %res.lobit.i.i.i = lshr i64 %sub.i.i19, 63
  %108 = trunc i64 %res.lobit.i.i.i to i8
  store i8 %108, i8* @SF_2073_293d9b8, align 1, !tbaa !1312
  %shr.i.i.i.i = lshr i64 %100, 63
  %xor3.i.i.i.i = xor i64 %res.lobit.i.i.i, %shr.i.i.i.i
  %add.i.i.i.i = add nuw nsw i64 %xor3.i.i.i.i, %shr.i.i.i.i
  %cmp.i.i.i.i = icmp eq i64 %add.i.i.i.i, 2
  %conv11.i.i.i = zext i1 %cmp.i.i.i.i to i8
  store i8 %conv11.i.i.i, i8* @OF_2077_293d9b8, align 1, !tbaa !1313
  store volatile %struct.Memory* %101, %struct.Memory** %MEMORY, align 8
  br label %inst_40129b

inst_40129b:                                      ; preds = %inst_401294
  %109 = load volatile i64, i64* %NEXT_PC, align 8
  store volatile i64 %109, i64* @RIP_2472_293da00, align 8
  %110 = add i64 %109, 7
  store volatile i64 %110, i64* %NEXT_PC, align 8
  %111 = load i64, i64* @RBP_2328_293da00, align 8
  %112 = sub i64 %111, 4
  %113 = load %struct.Memory*, %struct.Memory** %MEMORY, align 8
  %114 = inttoptr i64 %112 to i32*
  %115 = inttoptr i64 %112 to i32*
  %116 = ptrtoint i32* %115 to i64
  store i32 0, i32* %114, align 4
  store volatile %struct.Memory* %113, %struct.Memory** %MEMORY, align 8
  br label %inst_4012a2

inst_4012a2:                                      ; preds = %inst_40129b
  %117 = load volatile i64, i64* %NEXT_PC, align 8
  store volatile i64 %117, i64* @RIP_2472_293da00, align 8
  %118 = add i64 %117, 4
  store volatile i64 %118, i64* %NEXT_PC, align 8
  %119 = load i64, i64* @RBP_2328_293da00, align 8
  %120 = sub i64 %119, 48
  %121 = load %struct.Memory*, %struct.Memory** %MEMORY, align 8
  store i64 %120, i64* @RAX_2216_293da00, align 8, !tbaa !1290
  store volatile %struct.Memory* %121, %struct.Memory** %MEMORY, align 8
  br label %inst_4012a6

inst_4012a6:                                      ; preds = %inst_4012a2
  %122 = load volatile i64, i64* %NEXT_PC, align 8
  store volatile i64 %122, i64* @RIP_2472_293da00, align 8
  %123 = add i64 %122, 3
  store volatile i64 %123, i64* %NEXT_PC, align 8
  %124 = load i64, i64* @RAX_2216_293da00, align 8
  %125 = load %struct.Memory*, %struct.Memory** %MEMORY, align 8
  store i64 %124, i64* @RDI_2296_293da00, align 8, !tbaa !1290
  store volatile %struct.Memory* %125, %struct.Memory** %MEMORY, align 8
  br label %inst_4012a9

inst_4012a9:                                      ; preds = %inst_4012a6
  %126 = load volatile i64, i64* %NEXT_PC, align 8
  store volatile i64 %126, i64* @RIP_2472_293da00, align 8
  %127 = add i64 %126, 4
  store volatile i64 %127, i64* %NEXT_PC, align 8
  %128 = load i64, i64* @RBP_2328_293da00, align 8
  %129 = sub i64 %128, 120
  %130 = load i64, i64* @RAX_2216_293da00, align 8
  %131 = load %struct.Memory*, %struct.Memory** %MEMORY, align 8
  %132 = inttoptr i64 %129 to i64*
  %133 = inttoptr i64 %129 to i64*
  %134 = ptrtoint i64* %133 to i64
  store i64 %130, i64* %132, align 8
  store volatile %struct.Memory* %131, %struct.Memory** %MEMORY, align 8
  br label %inst_4012ad

inst_4012ad:                                      ; preds = %inst_4012a9
  %135 = load volatile i64, i64* %NEXT_PC, align 8
  store volatile i64 %135, i64* @RIP_2472_293da00, align 8
  %136 = add i64 %135, 5
  store volatile i64 %136, i64* %NEXT_PC, align 8
  %137 = load i64, i64* %NEXT_PC, align 8
  %138 = sub i64 %137, 402
  %139 = load i64, i64* %NEXT_PC, align 8
  %140 = load %struct.Memory*, %struct.Memory** %MEMORY, align 8
  %141 = load i64, i64* @RSP_2312_293da00, align 8, !tbaa !1314
  %sub.i.i29 = add i64 %141, -8
  %142 = inttoptr i64 %sub.i.i29 to i64*
  %143 = inttoptr i64 %sub.i.i29 to i64*
  %144 = ptrtoint i64* %143 to i64
  store i64 %139, i64* %142, align 8
  store i64 %sub.i.i29, i64* @RSP_2312_293da00, align 8, !tbaa !1290
  store i64 %138, i64* @RIP_2472_293da00, align 8, !tbaa !1290
  store i64 %138, i64* %NEXT_PC, align 8, !tbaa !1290
  store i64 %139, i64* %RETURN_PC, align 8, !tbaa !1290
  store volatile %struct.Memory* %140, %struct.Memory** %MEMORY, align 8
  %145 = load %struct.Memory*, %struct.Memory** %MEMORY, align 8
  %146 = call %struct.Memory* @ext_404248__ZNSaIcEC1Ev(%struct.State* @__mcsema_reg_state, i64 undef, %struct.Memory* %145)
  store %struct.Memory* %146, %struct.Memory** %MEMORY, align 8
  store i8* @data_4012b2, i8** @RIP_2472_2948dd0, align 8
  store i64 ptrtoint (i8* @data_4012b2 to i64), i64* %NEXT_PC, align 8
  br label %inst_4012b2

inst_4012b2:                                      ; preds = %inst_4012ad
  %147 = load volatile i64, i64* %NEXT_PC, align 8
  store volatile i64 %147, i64* @RIP_2472_293da00, align 8
  %148 = add i64 %147, 5
  store volatile i64 %148, i64* %NEXT_PC, align 8
  %149 = load %struct.Memory*, %struct.Memory** %MEMORY, align 8
  store i8* @data_402004, i8** @RSI_2280_2948dd0, align 8
  store volatile %struct.Memory* %149, %struct.Memory** %MEMORY, align 8
  br label %inst_4012b7

inst_4012b7:                                      ; preds = %inst_4012b2
  %150 = load volatile i64, i64* %NEXT_PC, align 8
  store volatile i64 %150, i64* @RIP_2472_293da00, align 8
  %151 = add i64 %150, 4
  store volatile i64 %151, i64* %NEXT_PC, align 8
  %152 = load i64, i64* @RBP_2328_293da00, align 8
  %153 = sub i64 %152, 40
  %154 = load %struct.Memory*, %struct.Memory** %MEMORY, align 8
  store i64 %153, i64* @RDI_2296_293da00, align 8, !tbaa !1290
  store volatile %struct.Memory* %154, %struct.Memory** %MEMORY, align 8
  br label %inst_4012bb

inst_4012bb:                                      ; preds = %inst_4012b7
  %155 = load volatile i64, i64* %NEXT_PC, align 8
  store volatile i64 %155, i64* @RIP_2472_293da00, align 8
  %156 = add i64 %155, 4
  store volatile i64 %156, i64* %NEXT_PC, align 8
  %157 = load i64, i64* @RBP_2328_293da00, align 8
  %158 = sub i64 %157, 120
  %159 = load %struct.Memory*, %struct.Memory** %MEMORY, align 8
  %160 = inttoptr i64 %158 to i64*
  %161 = inttoptr i64 %158 to i64*
  %162 = ptrtoint i64* %161 to i64
  %163 = load i64, i64* %160, align 8
  store i64 %163, i64* @RDX_2264_293da00, align 8, !tbaa !1290
  store volatile %struct.Memory* %159, %struct.Memory** %MEMORY, align 8
  br label %inst_4012bf

inst_4012bf:                                      ; preds = %inst_4012bb
  %164 = load volatile i64, i64* %NEXT_PC, align 8
  store volatile i64 %164, i64* @RIP_2472_293da00, align 8
  %165 = add i64 %164, 5
  store volatile i64 %165, i64* %NEXT_PC, align 8
  %166 = load i64, i64* %NEXT_PC, align 8
  %167 = sub i64 %166, 500
  %168 = load i64, i64* %NEXT_PC, align 8
  %169 = load %struct.Memory*, %struct.Memory** %MEMORY, align 8
  %170 = load i64, i64* @RSP_2312_293da00, align 8, !tbaa !1314
  %sub.i.i37 = add i64 %170, -8
  %171 = inttoptr i64 %sub.i.i37 to i64*
  %172 = inttoptr i64 %sub.i.i37 to i64*
  %173 = ptrtoint i64* %172 to i64
  store i64 %168, i64* %171, align 8
  store i64 %sub.i.i37, i64* @RSP_2312_293da00, align 8, !tbaa !1290
  store i64 %167, i64* @RIP_2472_293da00, align 8, !tbaa !1290
  store i64 %167, i64* %NEXT_PC, align 8, !tbaa !1290
  store i64 %168, i64* %RETURN_PC, align 8, !tbaa !1290
  store volatile %struct.Memory* %169, %struct.Memory** %MEMORY, align 8
  %174 = load %struct.Memory*, %struct.Memory** %MEMORY, align 8
  %175 = call %struct.Memory* @ext_404228__ZNSt7__cxx1112basic_stringIcSt11char_traitsIcESaIcEEC1EPKcRKS3_(%struct.State* @__mcsema_reg_state, i64 undef, %struct.Memory* %174)
  store %struct.Memory* %175, %struct.Memory** %MEMORY, align 8
  store i8* @data_4012c4, i8** @RIP_2472_2948dd0, align 8
  store i64 ptrtoint (i8* @data_4012c4 to i64), i64* %NEXT_PC, align 8
  br label %inst_4012c4

inst_4012c4:                                      ; preds = %inst_4012bf
  %176 = load volatile i64, i64* %NEXT_PC, align 8
  store volatile i64 %176, i64* @RIP_2472_293da00, align 8
  %177 = add i64 %176, 5
  store volatile i64 %177, i64* %NEXT_PC, align 8
  %178 = load i64, i64* %NEXT_PC, align 8
  %179 = load %struct.Memory*, %struct.Memory** %MEMORY, align 8
  store i64 %178, i64* @RIP_2472_293da00, align 8, !tbaa !1290
  store i64 %178, i64* %NEXT_PC, align 8, !tbaa !1290
  store volatile %struct.Memory* %179, %struct.Memory** %MEMORY, align 8
  br label %inst_4012c9

inst_4012cd:                                      ; preds = %inst_4012c9
  %180 = load volatile i64, i64* %NEXT_PC, align 8
  store volatile i64 %180, i64* @RIP_2472_293da00, align 8
  %181 = add i64 %180, 5
  store volatile i64 %181, i64* %NEXT_PC, align 8
  %182 = load i64, i64* %NEXT_PC, align 8
  %183 = sub i64 %182, 530
  %184 = load i64, i64* %NEXT_PC, align 8
  %185 = load %struct.Memory*, %struct.Memory** %MEMORY, align 8
  %186 = load i64, i64* @RSP_2312_293da00, align 8, !tbaa !1314
  %sub.i.i43 = add i64 %186, -8
  %187 = inttoptr i64 %sub.i.i43 to i64*
  %188 = inttoptr i64 %sub.i.i43 to i64*
  %189 = ptrtoint i64* %188 to i64
  store i64 %184, i64* %187, align 8
  store i64 %sub.i.i43, i64* @RSP_2312_293da00, align 8, !tbaa !1290
  store i64 %183, i64* @RIP_2472_293da00, align 8, !tbaa !1290
  store i64 %183, i64* %NEXT_PC, align 8, !tbaa !1290
  store i64 %184, i64* %RETURN_PC, align 8, !tbaa !1290
  store volatile %struct.Memory* %185, %struct.Memory** %MEMORY, align 8
  %190 = load %struct.Memory*, %struct.Memory** %MEMORY, align 8
  %191 = call %struct.Memory* @ext_404220__ZNSaIcED1Ev(%struct.State* @__mcsema_reg_state, i64 undef, %struct.Memory* %190)
  store %struct.Memory* %191, %struct.Memory** %MEMORY, align 8
  store i8* @data_4012d2, i8** @RIP_2472_2948dd0, align 8
  store i64 ptrtoint (i8* @data_4012d2 to i64), i64* %NEXT_PC, align 8
  br label %inst_4012d2

inst_4012d2:                                      ; preds = %inst_4012cd
  %192 = load volatile i64, i64* %NEXT_PC, align 8
  store volatile i64 %192, i64* @RIP_2472_293da00, align 8
  %193 = add i64 %192, 2
  store volatile i64 %193, i64* %NEXT_PC, align 8
  %194 = load i32, i32* @RAX_2216_293d9e8, align 4
  %195 = zext i32 %194 to i64
  %196 = load i32, i32* @RAX_2216_293d9e8, align 4
  %197 = zext i32 %196 to i64
  %198 = load %struct.Memory*, %struct.Memory** %MEMORY, align 8
  %xor3.i26.i = xor i64 %197, %195
  %xor3.i.i = trunc i64 %xor3.i26.i to i32
  %conv.i24.i = and i64 %xor3.i26.i, 4294967295
  store i64 %conv.i24.i, i64* @RAX_2216_293da00, align 8, !tbaa !1290
  store i8 0, i8* @CF_2065_293d9b8, align 1, !tbaa !1294
  %conv.i.i.i.i47 = and i32 %xor3.i.i, 255
  %199 = call i32 @llvm.ctpop.i32(i32 %conv.i.i.i.i47) #14, !range !1308
  %200 = trunc i32 %199 to i8
  %201 = and i8 %200, 1
  %202 = xor i8 %201, 1
  store i8 %202, i8* @PF_2067_293d9b8, align 1, !tbaa !1309
  %cmp.i1.i.i = icmp eq i32 %xor3.i.i, 0
  %conv3.i.i = zext i1 %cmp.i1.i.i to i8
  store i8 %conv3.i.i, i8* @ZF_2071_293d9b8, align 1, !tbaa !1311
  %res.lobit.i.i = lshr i32 %xor3.i.i, 31
  %203 = trunc i32 %res.lobit.i.i to i8
  store i8 %203, i8* @SF_2073_293d9b8, align 1, !tbaa !1312
  store i8 0, i8* @OF_2077_293d9b8, align 1, !tbaa !1313
  store i8 0, i8* @AF_2069_293d9b8, align 1, !tbaa !1310
  store volatile %struct.Memory* %198, %struct.Memory** %MEMORY, align 8
  br label %inst_4012d4

inst_4012d4:                                      ; preds = %inst_4012d2
  %204 = load volatile i64, i64* %NEXT_PC, align 8
  store volatile i64 %204, i64* @RIP_2472_293da00, align 8
  %205 = add i64 %204, 2
  store volatile i64 %205, i64* %NEXT_PC, align 8
  %206 = load i32, i32* @RAX_2216_293d9e8, align 4
  %207 = zext i32 %206 to i64
  %208 = load %struct.Memory*, %struct.Memory** %MEMORY, align 8
  %conv.i11.i = and i64 %207, 4294967295
  store i64 %conv.i11.i, i64* @RSI_2280_293da00, align 8, !tbaa !1290
  store volatile %struct.Memory* %208, %struct.Memory** %MEMORY, align 8
  br label %inst_4012d6

inst_4012d6:                                      ; preds = %inst_4012d4
  %209 = load volatile i64, i64* %NEXT_PC, align 8
  store volatile i64 %209, i64* @RIP_2472_293da00, align 8
  %210 = add i64 %209, 4
  store volatile i64 %210, i64* %NEXT_PC, align 8
  %211 = load i64, i64* @RBP_2328_293da00, align 8
  %212 = sub i64 %211, 40
  %213 = load %struct.Memory*, %struct.Memory** %MEMORY, align 8
  store i64 %212, i64* @RDI_2296_293da00, align 8, !tbaa !1290
  store volatile %struct.Memory* %213, %struct.Memory** %MEMORY, align 8
  br label %inst_4012da

inst_4012da:                                      ; preds = %inst_4012d6
  %214 = load volatile i64, i64* %NEXT_PC, align 8
  store volatile i64 %214, i64* @RIP_2472_293da00, align 8
  %215 = add i64 %214, 5
  store volatile i64 %215, i64* %NEXT_PC, align 8
  %216 = load i64, i64* %NEXT_PC, align 8
  %217 = add i64 %216, 289
  %218 = load i64, i64* %NEXT_PC, align 8
  %219 = load %struct.Memory*, %struct.Memory** %MEMORY, align 8
  %220 = load i64, i64* @RSP_2312_293da00, align 8, !tbaa !1314
  %sub.i.i56 = add i64 %220, -8
  %221 = inttoptr i64 %sub.i.i56 to i64*
  %222 = inttoptr i64 %sub.i.i56 to i64*
  %223 = ptrtoint i64* %222 to i64
  store i64 %218, i64* %221, align 8
  store i64 %sub.i.i56, i64* @RSP_2312_293da00, align 8, !tbaa !1290
  store i64 %217, i64* @RIP_2472_293da00, align 8, !tbaa !1290
  store i64 %217, i64* %NEXT_PC, align 8, !tbaa !1290
  store i64 %218, i64* %RETURN_PC, align 8, !tbaa !1290
  store volatile %struct.Memory* %219, %struct.Memory** %MEMORY, align 8
  %224 = load %struct.Memory*, %struct.Memory** %MEMORY, align 8
  %225 = call %struct.Memory* @sub_401400__ZNSt7__cxx114stodERKNS_12basic_stringIcSt11char_traitsIcESaIcEEEPm(%struct.State* @__mcsema_reg_state, i64 undef, %struct.Memory* %224)
  store %struct.Memory* %225, %struct.Memory** %MEMORY, align 8
  store i8* @data_4012df, i8** @RIP_2472_2948dd0, align 8
  store i64 ptrtoint (i8* @data_4012df to i64), i64* %NEXT_PC, align 8
  br label %inst_4012df

inst_4012df:                                      ; preds = %inst_4012da
  %226 = load volatile i64, i64* %NEXT_PC, align 8
  store volatile i64 %226, i64* @RIP_2472_293da00, align 8
  %227 = add i64 %226, 5
  store volatile i64 %227, i64* %NEXT_PC, align 8
  %228 = load i64, i64* @RBP_2328_293da00, align 8
  %229 = sub i64 %228, 128
  %230 = load %struct.Memory*, %struct.Memory** %MEMORY, align 8
  %retval.sroa.0.0.copyload.i.i = load double, double* @XMM0_16_293d8f8, align 1, !tbaa.struct !1324
  %231 = inttoptr i64 %229 to double*
  %232 = inttoptr i64 %229 to double*
  %233 = ptrtoint double* %232 to i64
  store double %retval.sroa.0.0.copyload.i.i, double* %231, align 8
  store volatile %struct.Memory* %230, %struct.Memory** %MEMORY, align 8
  br label %inst_4012e4

inst_4012e4:                                      ; preds = %inst_4012df
  %234 = load volatile i64, i64* %NEXT_PC, align 8
  store volatile i64 %234, i64* @RIP_2472_293da00, align 8
  %235 = add i64 %234, 5
  store volatile i64 %235, i64* %NEXT_PC, align 8
  %236 = load i64, i64* %NEXT_PC, align 8
  %237 = load %struct.Memory*, %struct.Memory** %MEMORY, align 8
  store i64 %236, i64* @RIP_2472_293da00, align 8, !tbaa !1290
  store i64 %236, i64* %NEXT_PC, align 8, !tbaa !1290
  store volatile %struct.Memory* %237, %struct.Memory** %MEMORY, align 8
  br label %inst_4012e9

inst_4012ee:                                      ; preds = %inst_4012e9
  %238 = load volatile i64, i64* %NEXT_PC, align 8
  store volatile i64 %238, i64* @RIP_2472_293da00, align 8
  %239 = add i64 %238, 5
  store volatile i64 %239, i64* %NEXT_PC, align 8
  %240 = load i64, i64* @RBP_2328_293da00, align 8
  %241 = sub i64 %240, 72
  %242 = load %struct.Memory*, %struct.Memory** %MEMORY, align 8
  %retval.sroa.0.0.copyload.i.i65 = load double, double* @XMM0_16_293d8f8, align 1, !tbaa.struct !1324
  %243 = inttoptr i64 %241 to double*
  %244 = inttoptr i64 %241 to double*
  %245 = ptrtoint double* %244 to i64
  store double %retval.sroa.0.0.copyload.i.i65, double* %243, align 8
  store volatile %struct.Memory* %242, %struct.Memory** %MEMORY, align 8
  br label %inst_4012f3

inst_4012f3:                                      ; preds = %inst_4012ee
  %246 = load volatile i64, i64* %NEXT_PC, align 8
  store volatile i64 %246, i64* @RIP_2472_293da00, align 8
  %247 = add i64 %246, 4
  store volatile i64 %247, i64* %NEXT_PC, align 8
  %248 = load i64, i64* @RBP_2328_293da00, align 8
  %249 = sub i64 %248, 112
  %250 = load %struct.Memory*, %struct.Memory** %MEMORY, align 8
  store i64 %249, i64* @RAX_2216_293da00, align 8, !tbaa !1290
  store volatile %struct.Memory* %250, %struct.Memory** %MEMORY, align 8
  br label %inst_4012f7

inst_4012f7:                                      ; preds = %inst_4012f3
  %251 = load volatile i64, i64* %NEXT_PC, align 8
  store volatile i64 %251, i64* @RIP_2472_293da00, align 8
  %252 = add i64 %251, 3
  store volatile i64 %252, i64* %NEXT_PC, align 8
  %253 = load i64, i64* @RAX_2216_293da00, align 8
  %254 = load %struct.Memory*, %struct.Memory** %MEMORY, align 8
  store i64 %253, i64* @RDI_2296_293da00, align 8, !tbaa !1290
  store volatile %struct.Memory* %254, %struct.Memory** %MEMORY, align 8
  br label %inst_4012fa

inst_4012fa:                                      ; preds = %inst_4012f7
  %255 = load volatile i64, i64* %NEXT_PC, align 8
  store volatile i64 %255, i64* @RIP_2472_293da00, align 8
  %256 = add i64 %255, 7
  store volatile i64 %256, i64* %NEXT_PC, align 8
  %257 = load i64, i64* @RBP_2328_293da00, align 8
  %258 = sub i64 %257, 136
  %259 = load i64, i64* @RAX_2216_293da00, align 8
  %260 = load %struct.Memory*, %struct.Memory** %MEMORY, align 8
  %261 = inttoptr i64 %258 to i64*
  %262 = inttoptr i64 %258 to i64*
  %263 = ptrtoint i64* %262 to i64
  store i64 %259, i64* %261, align 8
  store volatile %struct.Memory* %260, %struct.Memory** %MEMORY, align 8
  br label %inst_401301

inst_401301:                                      ; preds = %inst_4012fa
  %264 = load volatile i64, i64* %NEXT_PC, align 8
  store volatile i64 %264, i64* @RIP_2472_293da00, align 8
  %265 = add i64 %264, 5
  store volatile i64 %265, i64* %NEXT_PC, align 8
  %266 = load i64, i64* %NEXT_PC, align 8
  %267 = sub i64 %266, 486
  %268 = load i64, i64* %NEXT_PC, align 8
  %269 = load %struct.Memory*, %struct.Memory** %MEMORY, align 8
  %270 = load i64, i64* @RSP_2312_293da00, align 8, !tbaa !1314
  %sub.i.i92 = add i64 %270, -8
  %271 = inttoptr i64 %sub.i.i92 to i64*
  %272 = inttoptr i64 %sub.i.i92 to i64*
  %273 = ptrtoint i64* %272 to i64
  store i64 %268, i64* %271, align 8
  store i64 %sub.i.i92, i64* @RSP_2312_293da00, align 8, !tbaa !1290
  store i64 %267, i64* @RIP_2472_293da00, align 8, !tbaa !1290
  store i64 %267, i64* %NEXT_PC, align 8, !tbaa !1290
  store i64 %268, i64* %RETURN_PC, align 8, !tbaa !1290
  store volatile %struct.Memory* %269, %struct.Memory** %MEMORY, align 8
  %274 = load %struct.Memory*, %struct.Memory** %MEMORY, align 8
  %275 = call %struct.Memory* @ext_404248__ZNSaIcEC1Ev(%struct.State* @__mcsema_reg_state, i64 undef, %struct.Memory* %274)
  store %struct.Memory* %275, %struct.Memory** %MEMORY, align 8
  store i8* @data_401306, i8** @RIP_2472_2948dd0, align 8
  store i64 ptrtoint (i8* @data_401306 to i64), i64* %NEXT_PC, align 8
  br label %inst_401306

inst_401306:                                      ; preds = %inst_401301
  %276 = load volatile i64, i64* %NEXT_PC, align 8
  store volatile i64 %276, i64* @RIP_2472_293da00, align 8
  %277 = add i64 %276, 5
  store volatile i64 %277, i64* %NEXT_PC, align 8
  %278 = load %struct.Memory*, %struct.Memory** %MEMORY, align 8
  store i8* @data_402009, i8** @RSI_2280_2948dd0, align 8
  store volatile %struct.Memory* %278, %struct.Memory** %MEMORY, align 8
  br label %inst_40130b

inst_40130b:                                      ; preds = %inst_401306
  %279 = load volatile i64, i64* %NEXT_PC, align 8
  store volatile i64 %279, i64* @RIP_2472_293da00, align 8
  %280 = add i64 %279, 4
  store volatile i64 %280, i64* %NEXT_PC, align 8
  %281 = load i64, i64* @RBP_2328_293da00, align 8
  %282 = sub i64 %281, 104
  %283 = load %struct.Memory*, %struct.Memory** %MEMORY, align 8
  store i64 %282, i64* @RDI_2296_293da00, align 8, !tbaa !1290
  store volatile %struct.Memory* %283, %struct.Memory** %MEMORY, align 8
  br label %inst_40130f

inst_40130f:                                      ; preds = %inst_40130b
  %284 = load volatile i64, i64* %NEXT_PC, align 8
  store volatile i64 %284, i64* @RIP_2472_293da00, align 8
  %285 = add i64 %284, 7
  store volatile i64 %285, i64* %NEXT_PC, align 8
  %286 = load i64, i64* @RBP_2328_293da00, align 8
  %287 = sub i64 %286, 136
  %288 = load %struct.Memory*, %struct.Memory** %MEMORY, align 8
  %289 = inttoptr i64 %287 to i64*
  %290 = inttoptr i64 %287 to i64*
  %291 = ptrtoint i64* %290 to i64
  %292 = load i64, i64* %289, align 8
  store i64 %292, i64* @RDX_2264_293da00, align 8, !tbaa !1290
  store volatile %struct.Memory* %288, %struct.Memory** %MEMORY, align 8
  br label %inst_401316

inst_401316:                                      ; preds = %inst_40130f
  %293 = load volatile i64, i64* %NEXT_PC, align 8
  store volatile i64 %293, i64* @RIP_2472_293da00, align 8
  %294 = add i64 %293, 5
  store volatile i64 %294, i64* %NEXT_PC, align 8
  %295 = load i64, i64* %NEXT_PC, align 8
  %296 = sub i64 %295, 587
  %297 = load i64, i64* %NEXT_PC, align 8
  %298 = load %struct.Memory*, %struct.Memory** %MEMORY, align 8
  %299 = load i64, i64* @RSP_2312_293da00, align 8, !tbaa !1314
  %sub.i.i101 = add i64 %299, -8
  %300 = inttoptr i64 %sub.i.i101 to i64*
  %301 = inttoptr i64 %sub.i.i101 to i64*
  %302 = ptrtoint i64* %301 to i64
  store i64 %297, i64* %300, align 8
  store i64 %sub.i.i101, i64* @RSP_2312_293da00, align 8, !tbaa !1290
  store i64 %296, i64* @RIP_2472_293da00, align 8, !tbaa !1290
  store i64 %296, i64* %NEXT_PC, align 8, !tbaa !1290
  store i64 %297, i64* %RETURN_PC, align 8, !tbaa !1290
  store volatile %struct.Memory* %298, %struct.Memory** %MEMORY, align 8
  %303 = load %struct.Memory*, %struct.Memory** %MEMORY, align 8
  %304 = call %struct.Memory* @ext_404228__ZNSt7__cxx1112basic_stringIcSt11char_traitsIcESaIcEEC1EPKcRKS3_(%struct.State* @__mcsema_reg_state, i64 undef, %struct.Memory* %303)
  store %struct.Memory* %304, %struct.Memory** %MEMORY, align 8
  store i8* @data_40131b, i8** @RIP_2472_2948dd0, align 8
  store i64 ptrtoint (i8* @data_40131b to i64), i64* %NEXT_PC, align 8
  br label %inst_40131b

inst_40131b:                                      ; preds = %inst_401316
  %305 = load volatile i64, i64* %NEXT_PC, align 8
  store volatile i64 %305, i64* @RIP_2472_293da00, align 8
  %306 = add i64 %305, 5
  store volatile i64 %306, i64* %NEXT_PC, align 8
  %307 = load i64, i64* %NEXT_PC, align 8
  %308 = load %struct.Memory*, %struct.Memory** %MEMORY, align 8
  store i64 %307, i64* @RIP_2472_293da00, align 8, !tbaa !1290
  store i64 %307, i64* %NEXT_PC, align 8, !tbaa !1290
  store volatile %struct.Memory* %308, %struct.Memory** %MEMORY, align 8
  br label %inst_401320

inst_401324:                                      ; preds = %inst_401320
  %309 = load volatile i64, i64* %NEXT_PC, align 8
  store volatile i64 %309, i64* @RIP_2472_293da00, align 8
  %310 = add i64 %309, 5
  store volatile i64 %310, i64* %NEXT_PC, align 8
  %311 = load i64, i64* %NEXT_PC, align 8
  %312 = sub i64 %311, 617
  %313 = load i64, i64* %NEXT_PC, align 8
  %314 = load %struct.Memory*, %struct.Memory** %MEMORY, align 8
  %315 = load i64, i64* @RSP_2312_293da00, align 8, !tbaa !1314
  %sub.i.i110 = add i64 %315, -8
  %316 = inttoptr i64 %sub.i.i110 to i64*
  %317 = inttoptr i64 %sub.i.i110 to i64*
  %318 = ptrtoint i64* %317 to i64
  store i64 %313, i64* %316, align 8
  store i64 %sub.i.i110, i64* @RSP_2312_293da00, align 8, !tbaa !1290
  store i64 %312, i64* @RIP_2472_293da00, align 8, !tbaa !1290
  store i64 %312, i64* %NEXT_PC, align 8, !tbaa !1290
  store i64 %313, i64* %RETURN_PC, align 8, !tbaa !1290
  store volatile %struct.Memory* %314, %struct.Memory** %MEMORY, align 8
  %319 = load %struct.Memory*, %struct.Memory** %MEMORY, align 8
  %320 = call %struct.Memory* @ext_404220__ZNSaIcED1Ev(%struct.State* @__mcsema_reg_state, i64 undef, %struct.Memory* %319)
  store %struct.Memory* %320, %struct.Memory** %MEMORY, align 8
  store i8* @data_401329, i8** @RIP_2472_2948dd0, align 8
  store i64 ptrtoint (i8* @data_401329 to i64), i64* %NEXT_PC, align 8
  br label %inst_401329

inst_401329:                                      ; preds = %inst_401324
  %321 = load volatile i64, i64* %NEXT_PC, align 8
  store volatile i64 %321, i64* @RIP_2472_293da00, align 8
  %322 = add i64 %321, 4
  store volatile i64 %322, i64* %NEXT_PC, align 8
  %323 = load i64, i64* @RBP_2328_293da00, align 8
  %324 = sub i64 %323, 104
  %325 = load %struct.Memory*, %struct.Memory** %MEMORY, align 8
  store i64 %324, i64* @RDI_2296_293da00, align 8, !tbaa !1290
  store volatile %struct.Memory* %325, %struct.Memory** %MEMORY, align 8
  br label %inst_40132d

inst_40132d:                                      ; preds = %inst_401329
  %326 = load volatile i64, i64* %NEXT_PC, align 8
  store volatile i64 %326, i64* @RIP_2472_293da00, align 8
  %327 = add i64 %326, 5
  store volatile i64 %327, i64* %NEXT_PC, align 8
  %328 = load %struct.Memory*, %struct.Memory** %MEMORY, align 8
  store i64 5, i64* @RSI_2280_293da00, align 8, !tbaa !1290
  store volatile %struct.Memory* %328, %struct.Memory** %MEMORY, align 8
  br label %inst_401332

inst_401332:                                      ; preds = %inst_40132d
  %329 = load volatile i64, i64* %NEXT_PC, align 8
  store volatile i64 %329, i64* @RIP_2472_293da00, align 8
  %330 = add i64 %329, 5
  store volatile i64 %330, i64* %NEXT_PC, align 8
  %331 = load %struct.Memory*, %struct.Memory** %MEMORY, align 8
  store i64 1, i64* @RDX_2264_293da00, align 8, !tbaa !1290
  store volatile %struct.Memory* %331, %struct.Memory** %MEMORY, align 8
  br label %inst_401337

inst_401337:                                      ; preds = %inst_401332
  %332 = load volatile i64, i64* %NEXT_PC, align 8
  store volatile i64 %332, i64* @RIP_2472_293da00, align 8
  %333 = add i64 %332, 5
  store volatile i64 %333, i64* %NEXT_PC, align 8
  %334 = load %struct.Memory*, %struct.Memory** %MEMORY, align 8
  store i64 44, i64* @RCX_2248_293da00, align 8, !tbaa !1290
  store volatile %struct.Memory* %334, %struct.Memory** %MEMORY, align 8
  br label %inst_40133c

inst_40133c:                                      ; preds = %inst_401337
  %335 = load volatile i64, i64* %NEXT_PC, align 8
  store volatile i64 %335, i64* @RIP_2472_293da00, align 8
  %336 = add i64 %335, 5
  store volatile i64 %336, i64* %NEXT_PC, align 8
  %337 = load i64, i64* %NEXT_PC, align 8
  %338 = sub i64 %337, 529
  %339 = load i64, i64* %NEXT_PC, align 8
  %340 = load %struct.Memory*, %struct.Memory** %MEMORY, align 8
  %341 = load i64, i64* @RSP_2312_293da00, align 8, !tbaa !1314
  %sub.i.i122 = add i64 %341, -8
  %342 = inttoptr i64 %sub.i.i122 to i64*
  %343 = inttoptr i64 %sub.i.i122 to i64*
  %344 = ptrtoint i64* %343 to i64
  store i64 %339, i64* %342, align 8
  store i64 %sub.i.i122, i64* @RSP_2312_293da00, align 8, !tbaa !1290
  store i64 %338, i64* @RIP_2472_293da00, align 8, !tbaa !1290
  store i64 %338, i64* %NEXT_PC, align 8, !tbaa !1290
  store i64 %339, i64* %RETURN_PC, align 8, !tbaa !1290
  store volatile %struct.Memory* %340, %struct.Memory** %MEMORY, align 8
  %345 = load %struct.Memory*, %struct.Memory** %MEMORY, align 8
  %346 = call %struct.Memory* @ext_404250__ZNSt7__cxx1112basic_stringIcSt11char_traitsIcESaIcEE6insertEmmc(%struct.State* @__mcsema_reg_state, i64 undef, %struct.Memory* %345)
  store %struct.Memory* %346, %struct.Memory** %MEMORY, align 8
  store i8* @data_401341, i8** @RIP_2472_2948dd0, align 8
  store i64 ptrtoint (i8* @data_401341 to i64), i64* %NEXT_PC, align 8
  br label %inst_401341

inst_401341:                                      ; preds = %inst_40133c
  %347 = load volatile i64, i64* %NEXT_PC, align 8
  store volatile i64 %347, i64* @RIP_2472_293da00, align 8
  %348 = add i64 %347, 5
  store volatile i64 %348, i64* %NEXT_PC, align 8
  %349 = load i64, i64* %NEXT_PC, align 8
  %350 = load %struct.Memory*, %struct.Memory** %MEMORY, align 8
  store i64 %349, i64* @RIP_2472_293da00, align 8, !tbaa !1290
  store i64 %349, i64* %NEXT_PC, align 8, !tbaa !1290
  store volatile %struct.Memory* %350, %struct.Memory** %MEMORY, align 8
  br label %inst_401346

inst_40134b:                                      ; preds = %inst_401346
  %351 = load volatile i64, i64* %NEXT_PC, align 8
  store volatile i64 %351, i64* @RIP_2472_293da00, align 8
  %352 = add i64 %351, 4
  store volatile i64 %352, i64* %NEXT_PC, align 8
  %353 = load i64, i64* @RBP_2328_293da00, align 8
  %354 = sub i64 %353, 104
  %355 = load %struct.Memory*, %struct.Memory** %MEMORY, align 8
  store i64 %354, i64* @RSI_2280_293da00, align 8, !tbaa !1290
  store volatile %struct.Memory* %355, %struct.Memory** %MEMORY, align 8
  br label %inst_40134f

inst_40134f:                                      ; preds = %inst_40134b
  %356 = load volatile i64, i64* %NEXT_PC, align 8
  store volatile i64 %356, i64* @RIP_2472_293da00, align 8
  %357 = add i64 %356, 5
  store volatile i64 %357, i64* %NEXT_PC, align 8
  %358 = load i64, i64* %NEXT_PC, align 8
  %359 = sub i64 %358, 692
  %360 = load i64, i64* %NEXT_PC, align 8
  %361 = load %struct.Memory*, %struct.Memory** %MEMORY, align 8
  %362 = load i64, i64* @RSP_2312_293da00, align 8, !tbaa !1314
  %sub.i.i127 = add i64 %362, -8
  %363 = inttoptr i64 %sub.i.i127 to i64*
  %364 = inttoptr i64 %sub.i.i127 to i64*
  %365 = ptrtoint i64* %364 to i64
  store i64 %360, i64* %363, align 8
  store i64 %sub.i.i127, i64* @RSP_2312_293da00, align 8, !tbaa !1290
  store i64 %359, i64* @RIP_2472_293da00, align 8, !tbaa !1290
  store i64 %359, i64* %NEXT_PC, align 8, !tbaa !1290
  store i64 %360, i64* %RETURN_PC, align 8, !tbaa !1290
  store volatile %struct.Memory* %361, %struct.Memory** %MEMORY, align 8
  %366 = load %struct.Memory*, %struct.Memory** %MEMORY, align 8
  %367 = call %struct.Memory* @ext_404210__ZStlsIcSt11char_traitsIcESaIcEERSt13basic_ostreamIT_T0_ES7_RKNSt7__cxx1112basic_stringIS4_S5_T1_EE(%struct.State* @__mcsema_reg_state, i64 undef, %struct.Memory* %366)
  store %struct.Memory* %367, %struct.Memory** %MEMORY, align 8
  store i8* @data_401354, i8** @RIP_2472_2948dd0, align 8
  store i64 ptrtoint (i8* @data_401354 to i64), i64* %NEXT_PC, align 8
  br label %inst_401354

inst_401354:                                      ; preds = %inst_40134f
  %368 = load volatile i64, i64* %NEXT_PC, align 8
  store volatile i64 %368, i64* @RIP_2472_293da00, align 8
  %369 = add i64 %368, 7
  store volatile i64 %369, i64* %NEXT_PC, align 8
  %370 = load i64, i64* @RBP_2328_293da00, align 8
  %371 = sub i64 %370, 144
  %372 = load i64, i64* @RAX_2216_293da00, align 8
  %373 = load %struct.Memory*, %struct.Memory** %MEMORY, align 8
  %374 = inttoptr i64 %371 to i64*
  %375 = inttoptr i64 %371 to i64*
  %376 = ptrtoint i64* %375 to i64
  store i64 %372, i64* %374, align 8
  store volatile %struct.Memory* %373, %struct.Memory** %MEMORY, align 8
  br label %inst_40135b

inst_40135b:                                      ; preds = %inst_401354
  %377 = load volatile i64, i64* %NEXT_PC, align 8
  store volatile i64 %377, i64* @RIP_2472_293da00, align 8
  %378 = add i64 %377, 5
  store volatile i64 %378, i64* %NEXT_PC, align 8
  %379 = load i64, i64* %NEXT_PC, align 8
  %380 = load %struct.Memory*, %struct.Memory** %MEMORY, align 8
  store i64 %379, i64* @RIP_2472_293da00, align 8, !tbaa !1290
  store i64 %379, i64* %NEXT_PC, align 8, !tbaa !1290
  store volatile %struct.Memory* %380, %struct.Memory** %MEMORY, align 8
  br label %inst_401360

inst_401365:                                      ; preds = %inst_401360
  %381 = load volatile i64, i64* %NEXT_PC, align 8
  store volatile i64 %381, i64* @RIP_2472_293da00, align 8
  %382 = add i64 %381, 7
  store volatile i64 %382, i64* %NEXT_PC, align 8
  %383 = load i64, i64* @RBP_2328_293da00, align 8
  %384 = sub i64 %383, 144
  %385 = load %struct.Memory*, %struct.Memory** %MEMORY, align 8
  %386 = inttoptr i64 %384 to i64*
  %387 = inttoptr i64 %384 to i64*
  %388 = ptrtoint i64* %387 to i64
  %389 = load i64, i64* %386, align 8
  store i64 %389, i64* @RDI_2296_293da00, align 8, !tbaa !1290
  store volatile %struct.Memory* %385, %struct.Memory** %MEMORY, align 8
  br label %inst_40136c

inst_40136c:                                      ; preds = %inst_401365
  %390 = load volatile i64, i64* %NEXT_PC, align 8
  store volatile i64 %390, i64* @RIP_2472_293da00, align 8
  %391 = add i64 %390, 5
  store volatile i64 %391, i64* %NEXT_PC, align 8
  %392 = load i64, i64* %NEXT_PC, align 8
  %393 = sub i64 %392, 705
  %394 = load i64, i64* %NEXT_PC, align 8
  %395 = load %struct.Memory*, %struct.Memory** %MEMORY, align 8
  %396 = load i64, i64* @RSP_2312_293da00, align 8, !tbaa !1314
  %sub.i.i115 = add i64 %396, -8
  %397 = inttoptr i64 %sub.i.i115 to i64*
  %398 = inttoptr i64 %sub.i.i115 to i64*
  %399 = ptrtoint i64* %398 to i64
  store i64 %394, i64* %397, align 8
  store i64 %sub.i.i115, i64* @RSP_2312_293da00, align 8, !tbaa !1290
  store i64 %393, i64* @RIP_2472_293da00, align 8, !tbaa !1290
  store i64 %393, i64* %NEXT_PC, align 8, !tbaa !1290
  store i64 %394, i64* %RETURN_PC, align 8, !tbaa !1290
  store volatile %struct.Memory* %395, %struct.Memory** %MEMORY, align 8
  %400 = load %struct.Memory*, %struct.Memory** %MEMORY, align 8
  %401 = call %struct.Memory* @ext_404218__ZNSolsEPFRSoS_E(%struct.State* @__mcsema_reg_state, i64 undef, %struct.Memory* %400)
  store %struct.Memory* %401, %struct.Memory** %MEMORY, align 8
  store i8* @data_401371, i8** @RIP_2472_2948dd0, align 8
  store i64 ptrtoint (i8* @data_401371 to i64), i64* %NEXT_PC, align 8
  br label %inst_401371

inst_401371:                                      ; preds = %inst_40136c
  %402 = load volatile i64, i64* %NEXT_PC, align 8
  store volatile i64 %402, i64* @RIP_2472_293da00, align 8
  %403 = add i64 %402, 5
  store volatile i64 %403, i64* %NEXT_PC, align 8
  %404 = load i64, i64* %NEXT_PC, align 8
  %405 = load %struct.Memory*, %struct.Memory** %MEMORY, align 8
  store i64 %404, i64* @RIP_2472_293da00, align 8, !tbaa !1290
  store i64 %404, i64* %NEXT_PC, align 8, !tbaa !1290
  store volatile %struct.Memory* %405, %struct.Memory** %MEMORY, align 8
  br label %inst_401376

inst_40137d:                                      ; preds = %inst_401376
  %406 = load volatile i64, i64* %NEXT_PC, align 8
  store volatile i64 %406, i64* @RIP_2472_293da00, align 8
  %407 = add i64 %406, 4
  store volatile i64 %407, i64* %NEXT_PC, align 8
  %408 = load i64, i64* @RBP_2328_293da00, align 8
  %409 = sub i64 %408, 104
  %410 = load %struct.Memory*, %struct.Memory** %MEMORY, align 8
  store i64 %409, i64* @RDI_2296_293da00, align 8, !tbaa !1290
  store volatile %struct.Memory* %410, %struct.Memory** %MEMORY, align 8
  br label %inst_401381

inst_401381:                                      ; preds = %inst_40137d
  %411 = load volatile i64, i64* %NEXT_PC, align 8
  store volatile i64 %411, i64* @RIP_2472_293da00, align 8
  %412 = add i64 %411, 5
  store volatile i64 %412, i64* %NEXT_PC, align 8
  %413 = load i64, i64* %NEXT_PC, align 8
  %414 = sub i64 %413, 790
  %415 = load i64, i64* %NEXT_PC, align 8
  %416 = load %struct.Memory*, %struct.Memory** %MEMORY, align 8
  %417 = load i64, i64* @RSP_2312_293da00, align 8, !tbaa !1314
  %sub.i.i106 = add i64 %417, -8
  %418 = inttoptr i64 %sub.i.i106 to i64*
  %419 = inttoptr i64 %sub.i.i106 to i64*
  %420 = ptrtoint i64* %419 to i64
  store i64 %415, i64* %418, align 8
  store i64 %sub.i.i106, i64* @RSP_2312_293da00, align 8, !tbaa !1290
  store i64 %414, i64* @RIP_2472_293da00, align 8, !tbaa !1290
  store i64 %414, i64* %NEXT_PC, align 8, !tbaa !1290
  store i64 %415, i64* %RETURN_PC, align 8, !tbaa !1290
  store volatile %struct.Memory* %416, %struct.Memory** %MEMORY, align 8
  %421 = load %struct.Memory*, %struct.Memory** %MEMORY, align 8
  %422 = call %struct.Memory* @ext_4041f8__ZNSt7__cxx1112basic_stringIcSt11char_traitsIcESaIcEED1Ev(%struct.State* @__mcsema_reg_state, i64 undef, %struct.Memory* %421)
  store %struct.Memory* %422, %struct.Memory** %MEMORY, align 8
  store i8* @data_401386, i8** @RIP_2472_2948dd0, align 8
  store i64 ptrtoint (i8* @data_401386 to i64), i64* %NEXT_PC, align 8
  br label %inst_401386

inst_401386:                                      ; preds = %inst_401381
  %423 = load volatile i64, i64* %NEXT_PC, align 8
  store volatile i64 %423, i64* @RIP_2472_293da00, align 8
  %424 = add i64 %423, 4
  store volatile i64 %424, i64* %NEXT_PC, align 8
  %425 = load i64, i64* @RBP_2328_293da00, align 8
  %426 = sub i64 %425, 40
  %427 = load %struct.Memory*, %struct.Memory** %MEMORY, align 8
  store i64 %426, i64* @RDI_2296_293da00, align 8, !tbaa !1290
  store volatile %struct.Memory* %427, %struct.Memory** %MEMORY, align 8
  br label %inst_40138a

inst_40138a:                                      ; preds = %inst_401386
  %428 = load volatile i64, i64* %NEXT_PC, align 8
  store volatile i64 %428, i64* @RIP_2472_293da00, align 8
  %429 = add i64 %428, 5
  store volatile i64 %429, i64* %NEXT_PC, align 8
  %430 = load i64, i64* %NEXT_PC, align 8
  %431 = sub i64 %430, 799
  %432 = load i64, i64* %NEXT_PC, align 8
  %433 = load %struct.Memory*, %struct.Memory** %MEMORY, align 8
  %434 = load i64, i64* @RSP_2312_293da00, align 8, !tbaa !1314
  %sub.i.i96 = add i64 %434, -8
  %435 = inttoptr i64 %sub.i.i96 to i64*
  %436 = inttoptr i64 %sub.i.i96 to i64*
  %437 = ptrtoint i64* %436 to i64
  store i64 %432, i64* %435, align 8
  store i64 %sub.i.i96, i64* @RSP_2312_293da00, align 8, !tbaa !1290
  store i64 %431, i64* @RIP_2472_293da00, align 8, !tbaa !1290
  store i64 %431, i64* %NEXT_PC, align 8, !tbaa !1290
  store i64 %432, i64* %RETURN_PC, align 8, !tbaa !1290
  store volatile %struct.Memory* %433, %struct.Memory** %MEMORY, align 8
  %438 = load %struct.Memory*, %struct.Memory** %MEMORY, align 8
  %439 = call %struct.Memory* @ext_4041f8__ZNSt7__cxx1112basic_stringIcSt11char_traitsIcESaIcEED1Ev(%struct.State* @__mcsema_reg_state, i64 undef, %struct.Memory* %438)
  store %struct.Memory* %439, %struct.Memory** %MEMORY, align 8
  store i8* @data_40138f, i8** @RIP_2472_2948dd0, align 8
  store i64 ptrtoint (i8* @data_40138f to i64), i64* %NEXT_PC, align 8
  br label %inst_40138f

inst_40138f:                                      ; preds = %inst_40138a
  %440 = load volatile i64, i64* %NEXT_PC, align 8
  store volatile i64 %440, i64* @RIP_2472_293da00, align 8
  %441 = add i64 %440, 3
  store volatile i64 %441, i64* %NEXT_PC, align 8
  %442 = load i64, i64* @RBP_2328_293da00, align 8
  %443 = sub i64 %442, 4
  %444 = load %struct.Memory*, %struct.Memory** %MEMORY, align 8
  %445 = inttoptr i64 %443 to i32*
  %446 = inttoptr i64 %443 to i32*
  %447 = ptrtoint i32* %446 to i64
  %448 = load i32, i32* %445, align 4
  %conv.i.i89 = zext i32 %448 to i64
  store i64 %conv.i.i89, i64* @RAX_2216_293da00, align 8, !tbaa !1290
  store volatile %struct.Memory* %444, %struct.Memory** %MEMORY, align 8
  br label %inst_401392

inst_401392:                                      ; preds = %inst_40138f
  %449 = load volatile i64, i64* %NEXT_PC, align 8
  store volatile i64 %449, i64* @RIP_2472_293da00, align 8
  %450 = add i64 %449, 7
  store volatile i64 %450, i64* %NEXT_PC, align 8
  %451 = load i64, i64* @RSP_2312_293da00, align 8
  %452 = load %struct.Memory*, %struct.Memory** %MEMORY, align 8
  %add.i.i67 = add i64 144, %451
  store i64 %add.i.i67, i64* @RSP_2312_293da00, align 8, !tbaa !1290
  %cmp.i.i.i68 = icmp ult i64 %add.i.i67, %451
  %cmp1.i.i.i = icmp ult i64 %add.i.i67, 144
  %453 = or i1 %cmp.i.i.i68, %cmp1.i.i.i
  %conv.i.i69 = zext i1 %453 to i8
  store i8 %conv.i.i69, i8* @CF_2065_293d9b8, align 1, !tbaa !1294
  %conv.i.i.i.i71 = trunc i64 %add.i.i67 to i32
  %conv.i.i.i.i.i72 = and i32 %conv.i.i.i.i71, 255
  %454 = call i32 @llvm.ctpop.i32(i32 %conv.i.i.i.i.i72) #14, !range !1308
  %455 = trunc i32 %454 to i8
  %456 = and i8 %455, 1
  %457 = xor i8 %456, 1
  store i8 %457, i8* @PF_2067_293d9b8, align 1, !tbaa !1309
  %xor.i25.i.i.i74 = xor i64 144, %451
  %xor1.i.i.i.i75 = xor i64 %xor.i25.i.i.i74, %add.i.i67
  %and.i.i.i.i76 = lshr i64 %xor1.i.i.i.i75, 4
  %458 = trunc i64 %and.i.i.i.i76 to i8
  %459 = and i8 %458, 1
  store i8 %459, i8* @AF_2069_293d9b8, align 1, !tbaa !1310
  %cmp.i24.i.i.i78 = icmp eq i64 %add.i.i67, 0
  %conv5.i.i.i79 = zext i1 %cmp.i24.i.i.i78 to i8
  store i8 %conv5.i.i.i79, i8* @ZF_2071_293d9b8, align 1, !tbaa !1311
  %res.lobit.i.i.i81 = lshr i64 %add.i.i67, 63
  %460 = trunc i64 %res.lobit.i.i.i81 to i8
  store i8 %460, i8* @SF_2073_293d9b8, align 1, !tbaa !1312
  %shr.i.i.i.i83 = lshr i64 %451, 63
  %xor.i.i.i.i = xor i64 %res.lobit.i.i.i81, %shr.i.i.i.i83
  %add.i.i.i.i84 = add nuw nsw i64 %xor.i.i.i.i, %res.lobit.i.i.i81
  %cmp.i.i.i.i85 = icmp eq i64 %add.i.i.i.i84, 2
  %conv11.i.i.i86 = zext i1 %cmp.i.i.i.i85 to i8
  store i8 %conv11.i.i.i86, i8* @OF_2077_293d9b8, align 1, !tbaa !1313
  store volatile %struct.Memory* %452, %struct.Memory** %MEMORY, align 8
  br label %inst_401399

inst_401399:                                      ; preds = %inst_401392
  %461 = load volatile i64, i64* %NEXT_PC, align 8
  store volatile i64 %461, i64* @RIP_2472_293da00, align 8
  %462 = add i64 %461, 1
  store volatile i64 %462, i64* %NEXT_PC, align 8
  %463 = load %struct.Memory*, %struct.Memory** %MEMORY, align 8
  %464 = load i64*, i64** @RSP_2312_2948f30, align 8
  %465 = load i64*, i64** @RSP_2312_2948f30, align 8
  %466 = load i64, i64* @RSP_2312_293da00, align 8, !tbaa !1314
  %add.i.i62 = add i64 %466, 8
  store i64 %add.i.i62, i64* @RSP_2312_293da00, align 8, !tbaa !1290
  %467 = ptrtoint i64* %465 to i64
  %468 = load i64, i64* %464, align 8
  store i64 %468, i64* @RBP_2328_293da00, align 8, !tbaa !1290
  store volatile %struct.Memory* %463, %struct.Memory** %MEMORY, align 8
  br label %inst_40139a

inst_40139a:                                      ; preds = %inst_401399
  %469 = load volatile i64, i64* %NEXT_PC, align 8
  store volatile i64 %469, i64* @RIP_2472_293da00, align 8
  %470 = add i64 %469, 1
  store volatile i64 %470, i64* %NEXT_PC, align 8
  %471 = load %struct.Memory*, %struct.Memory** %MEMORY, align 8
  %472 = load i64*, i64** @RSP_2312_2948f30, align 8
  %473 = load i64*, i64** @RSP_2312_2948f30, align 8
  %474 = load i64, i64* @RSP_2312_293da00, align 8, !tbaa !1314
  %475 = ptrtoint i64* %473 to i64
  %476 = load i64, i64* %472, align 8
  store i64 %476, i64* @RIP_2472_293da00, align 8, !tbaa !1290
  store i64 %476, i64* %NEXT_PC, align 8, !tbaa !1290
  %477 = load i64, i64* @RSP_2312_293da00, align 8, !tbaa !1314
  %add.i.i = add i64 %477, 8
  store i64 %add.i.i, i64* @RSP_2312_293da00, align 8, !tbaa !1290
  store volatile %struct.Memory* %471, %struct.Memory** %MEMORY, align 8
  %478 = load %struct.Memory*, %struct.Memory** %MEMORY, align 8
  ret %struct.Memory* %478

inst_40139f:                                      ; preds = %inst_40139b
  %479 = load volatile i64, i64* %NEXT_PC, align 8
  store volatile i64 %479, i64* @RIP_2472_293da00, align 8
  %480 = add i64 %479, 3
  store volatile i64 %480, i64* %NEXT_PC, align 8
  %481 = load i64, i64* @RBP_2328_293da00, align 8
  %482 = sub i64 %481, 60
  %483 = load i32, i32* @RDX_2264_293d9e8, align 4
  %484 = zext i32 %483 to i64
  %485 = load %struct.Memory*, %struct.Memory** %MEMORY, align 8
  %486 = inttoptr i64 %482 to i32*
  %487 = inttoptr i64 %482 to i32*
  %488 = ptrtoint i32* %487 to i64
  store i32 %483, i32* %486, align 4
  store volatile %struct.Memory* %485, %struct.Memory** %MEMORY, align 8
  br label %inst_4013a2

inst_4013a2:                                      ; preds = %inst_40139f
  %489 = load volatile i64, i64* %NEXT_PC, align 8
  store volatile i64 %489, i64* @RIP_2472_293da00, align 8
  %490 = add i64 %489, 4
  store volatile i64 %490, i64* %NEXT_PC, align 8
  %491 = load i64, i64* @RBP_2328_293da00, align 8
  %492 = sub i64 %491, 48
  %493 = load %struct.Memory*, %struct.Memory** %MEMORY, align 8
  store i64 %492, i64* @RDI_2296_293da00, align 8, !tbaa !1290
  store volatile %struct.Memory* %493, %struct.Memory** %MEMORY, align 8
  br label %inst_4013a6

inst_4013a6:                                      ; preds = %inst_4013a2
  %494 = load volatile i64, i64* %NEXT_PC, align 8
  store volatile i64 %494, i64* @RIP_2472_293da00, align 8
  %495 = add i64 %494, 5
  store volatile i64 %495, i64* %NEXT_PC, align 8
  %496 = load i64, i64* %NEXT_PC, align 8
  %497 = sub i64 %496, 747
  %498 = load i64, i64* %NEXT_PC, align 8
  %499 = load %struct.Memory*, %struct.Memory** %MEMORY, align 8
  %500 = load i64, i64* @RSP_2312_293da00, align 8, !tbaa !1314
  %sub.i.i49 = add i64 %500, -8
  %501 = inttoptr i64 %sub.i.i49 to i64*
  %502 = inttoptr i64 %sub.i.i49 to i64*
  %503 = ptrtoint i64* %502 to i64
  store i64 %498, i64* %501, align 8
  store i64 %sub.i.i49, i64* @RSP_2312_293da00, align 8, !tbaa !1290
  store i64 %497, i64* @RIP_2472_293da00, align 8, !tbaa !1290
  store i64 %497, i64* %NEXT_PC, align 8, !tbaa !1290
  store i64 %498, i64* %RETURN_PC, align 8, !tbaa !1290
  store volatile %struct.Memory* %499, %struct.Memory** %MEMORY, align 8
  %504 = load %struct.Memory*, %struct.Memory** %MEMORY, align 8
  %505 = call %struct.Memory* @ext_404220__ZNSaIcED1Ev(%struct.State* @__mcsema_reg_state, i64 undef, %struct.Memory* %504)
  store %struct.Memory* %505, %struct.Memory** %MEMORY, align 8
  store i8* @data_4013ab, i8** @RIP_2472_2948dd0, align 8
  store i64 ptrtoint (i8* @data_4013ab to i64), i64* %NEXT_PC, align 8
  br label %inst_4013ab

inst_4013ab:                                      ; preds = %inst_4013a6
  %506 = load volatile i64, i64* %NEXT_PC, align 8
  store volatile i64 %506, i64* @RIP_2472_293da00, align 8
  %507 = add i64 %506, 5
  store volatile i64 %507, i64* %NEXT_PC, align 8
  %508 = load i64, i64* %NEXT_PC, align 8
  %509 = add i64 %508, 58
  %510 = load %struct.Memory*, %struct.Memory** %MEMORY, align 8
  store i64 %509, i64* @RIP_2472_293da00, align 8, !tbaa !1290
  store i64 %509, i64* %NEXT_PC, align 8, !tbaa !1290
  store volatile %struct.Memory* %510, %struct.Memory** %MEMORY, align 8
  br label %inst_4013ea

inst_4013b4:                                      ; preds = %inst_4013b0
  %511 = load volatile i64, i64* %NEXT_PC, align 8
  store volatile i64 %511, i64* @RIP_2472_293da00, align 8
  %512 = add i64 %511, 3
  store volatile i64 %512, i64* %NEXT_PC, align 8
  %513 = load i64, i64* @RBP_2328_293da00, align 8
  %514 = sub i64 %513, 60
  %515 = load i32, i32* @RDX_2264_293d9e8, align 4
  %516 = zext i32 %515 to i64
  %517 = load %struct.Memory*, %struct.Memory** %MEMORY, align 8
  %518 = inttoptr i64 %514 to i32*
  %519 = inttoptr i64 %514 to i32*
  %520 = ptrtoint i32* %519 to i64
  store i32 %515, i32* %518, align 4
  store volatile %struct.Memory* %517, %struct.Memory** %MEMORY, align 8
  br label %inst_4013b7

inst_4013b7:                                      ; preds = %inst_4013b4
  %521 = load volatile i64, i64* %NEXT_PC, align 8
  store volatile i64 %521, i64* @RIP_2472_293da00, align 8
  %522 = add i64 %521, 5
  store volatile i64 %522, i64* %NEXT_PC, align 8
  %523 = load i64, i64* %NEXT_PC, align 8
  %524 = add i64 %523, 37
  %525 = load %struct.Memory*, %struct.Memory** %MEMORY, align 8
  store i64 %524, i64* @RIP_2472_293da00, align 8, !tbaa !1290
  store i64 %524, i64* %NEXT_PC, align 8, !tbaa !1290
  store volatile %struct.Memory* %525, %struct.Memory** %MEMORY, align 8
  br label %inst_4013e1

inst_4013c0:                                      ; preds = %inst_4013bc
  %526 = load volatile i64, i64* %NEXT_PC, align 8
  store volatile i64 %526, i64* @RIP_2472_293da00, align 8
  %527 = add i64 %526, 3
  store volatile i64 %527, i64* %NEXT_PC, align 8
  %528 = load i64, i64* @RBP_2328_293da00, align 8
  %529 = sub i64 %528, 60
  %530 = load i32, i32* @RDX_2264_293d9e8, align 4
  %531 = zext i32 %530 to i64
  %532 = load %struct.Memory*, %struct.Memory** %MEMORY, align 8
  %533 = inttoptr i64 %529 to i32*
  %534 = inttoptr i64 %529 to i32*
  %535 = ptrtoint i32* %534 to i64
  store i32 %530, i32* %533, align 4
  store volatile %struct.Memory* %532, %struct.Memory** %MEMORY, align 8
  br label %inst_4013c3

inst_4013c3:                                      ; preds = %inst_4013c0
  %536 = load volatile i64, i64* %NEXT_PC, align 8
  store volatile i64 %536, i64* @RIP_2472_293da00, align 8
  %537 = add i64 %536, 4
  store volatile i64 %537, i64* %NEXT_PC, align 8
  %538 = load i64, i64* @RBP_2328_293da00, align 8
  %539 = sub i64 %538, 112
  %540 = load %struct.Memory*, %struct.Memory** %MEMORY, align 8
  store i64 %539, i64* @RDI_2296_293da00, align 8, !tbaa !1290
  store volatile %struct.Memory* %540, %struct.Memory** %MEMORY, align 8
  br label %inst_4013c7

inst_4013c7:                                      ; preds = %inst_4013c3
  %541 = load volatile i64, i64* %NEXT_PC, align 8
  store volatile i64 %541, i64* @RIP_2472_293da00, align 8
  %542 = add i64 %541, 5
  store volatile i64 %542, i64* %NEXT_PC, align 8
  %543 = load i64, i64* %NEXT_PC, align 8
  %544 = sub i64 %543, 780
  %545 = load i64, i64* %NEXT_PC, align 8
  %546 = load %struct.Memory*, %struct.Memory** %MEMORY, align 8
  %547 = load i64, i64* @RSP_2312_293da00, align 8, !tbaa !1314
  %sub.i.i24 = add i64 %547, -8
  %548 = inttoptr i64 %sub.i.i24 to i64*
  %549 = inttoptr i64 %sub.i.i24 to i64*
  %550 = ptrtoint i64* %549 to i64
  store i64 %545, i64* %548, align 8
  store i64 %sub.i.i24, i64* @RSP_2312_293da00, align 8, !tbaa !1290
  store i64 %544, i64* @RIP_2472_293da00, align 8, !tbaa !1290
  store i64 %544, i64* %NEXT_PC, align 8, !tbaa !1290
  store i64 %545, i64* %RETURN_PC, align 8, !tbaa !1290
  store volatile %struct.Memory* %546, %struct.Memory** %MEMORY, align 8
  %551 = load %struct.Memory*, %struct.Memory** %MEMORY, align 8
  %552 = call %struct.Memory* @ext_404220__ZNSaIcED1Ev(%struct.State* @__mcsema_reg_state, i64 undef, %struct.Memory* %551)
  store %struct.Memory* %552, %struct.Memory** %MEMORY, align 8
  store i8* @data_4013cc, i8** @RIP_2472_2948dd0, align 8
  store i64 ptrtoint (i8* @data_4013cc to i64), i64* %NEXT_PC, align 8
  br label %inst_4013cc

inst_4013cc:                                      ; preds = %inst_4013c7
  %553 = load volatile i64, i64* %NEXT_PC, align 8
  store volatile i64 %553, i64* @RIP_2472_293da00, align 8
  %554 = add i64 %553, 5
  store volatile i64 %554, i64* %NEXT_PC, align 8
  %555 = load i64, i64* %NEXT_PC, align 8
  %556 = add i64 %555, 16
  %557 = load %struct.Memory*, %struct.Memory** %MEMORY, align 8
  store i64 %556, i64* @RIP_2472_293da00, align 8, !tbaa !1290
  store i64 %556, i64* %NEXT_PC, align 8, !tbaa !1290
  store volatile %struct.Memory* %557, %struct.Memory** %MEMORY, align 8
  br label %inst_4013e1

inst_4013d5:                                      ; preds = %inst_4013d1
  %558 = load volatile i64, i64* %NEXT_PC, align 8
  store volatile i64 %558, i64* @RIP_2472_293da00, align 8
  %559 = add i64 %558, 3
  store volatile i64 %559, i64* %NEXT_PC, align 8
  %560 = load i64, i64* @RBP_2328_293da00, align 8
  %561 = sub i64 %560, 60
  %562 = load i32, i32* @RDX_2264_293d9e8, align 4
  %563 = zext i32 %562 to i64
  %564 = load %struct.Memory*, %struct.Memory** %MEMORY, align 8
  %565 = inttoptr i64 %561 to i32*
  %566 = inttoptr i64 %561 to i32*
  %567 = ptrtoint i32* %566 to i64
  store i32 %562, i32* %565, align 4
  store volatile %struct.Memory* %564, %struct.Memory** %MEMORY, align 8
  br label %inst_4013d8

inst_4013d8:                                      ; preds = %inst_4013d5
  %568 = load volatile i64, i64* %NEXT_PC, align 8
  store volatile i64 %568, i64* @RIP_2472_293da00, align 8
  %569 = add i64 %568, 4
  store volatile i64 %569, i64* %NEXT_PC, align 8
  %570 = load i64, i64* @RBP_2328_293da00, align 8
  %571 = sub i64 %570, 104
  %572 = load %struct.Memory*, %struct.Memory** %MEMORY, align 8
  store i64 %571, i64* @RDI_2296_293da00, align 8, !tbaa !1290
  store volatile %struct.Memory* %572, %struct.Memory** %MEMORY, align 8
  br label %inst_4013dc

inst_4013dc:                                      ; preds = %inst_4013d8
  %573 = load volatile i64, i64* %NEXT_PC, align 8
  store volatile i64 %573, i64* @RIP_2472_293da00, align 8
  %574 = add i64 %573, 5
  store volatile i64 %574, i64* %NEXT_PC, align 8
  %575 = load i64, i64* %NEXT_PC, align 8
  %576 = sub i64 %575, 881
  %577 = load i64, i64* %NEXT_PC, align 8
  %578 = load %struct.Memory*, %struct.Memory** %MEMORY, align 8
  %579 = load i64, i64* @RSP_2312_293da00, align 8, !tbaa !1314
  %sub.i.i16 = add i64 %579, -8
  %580 = inttoptr i64 %sub.i.i16 to i64*
  %581 = inttoptr i64 %sub.i.i16 to i64*
  %582 = ptrtoint i64* %581 to i64
  store i64 %577, i64* %580, align 8
  store i64 %sub.i.i16, i64* @RSP_2312_293da00, align 8, !tbaa !1290
  store i64 %576, i64* @RIP_2472_293da00, align 8, !tbaa !1290
  store i64 %576, i64* %NEXT_PC, align 8, !tbaa !1290
  store i64 %577, i64* %RETURN_PC, align 8, !tbaa !1290
  store volatile %struct.Memory* %578, %struct.Memory** %MEMORY, align 8
  %583 = load %struct.Memory*, %struct.Memory** %MEMORY, align 8
  %584 = call %struct.Memory* @ext_4041f8__ZNSt7__cxx1112basic_stringIcSt11char_traitsIcESaIcEED1Ev(%struct.State* @__mcsema_reg_state, i64 undef, %struct.Memory* %583)
  store %struct.Memory* %584, %struct.Memory** %MEMORY, align 8
  store i8* @data_4013e1, i8** @RIP_2472_2948dd0, align 8
  store i64 ptrtoint (i8* @data_4013e1 to i64), i64* %NEXT_PC, align 8
  br label %inst_4013e1

inst_4013e5:                                      ; preds = %inst_4013e1
  %585 = load volatile i64, i64* %NEXT_PC, align 8
  store volatile i64 %585, i64* @RIP_2472_293da00, align 8
  %586 = add i64 %585, 5
  store volatile i64 %586, i64* %NEXT_PC, align 8
  %587 = load i64, i64* %NEXT_PC, align 8
  %588 = sub i64 %587, 890
  %589 = load i64, i64* %NEXT_PC, align 8
  %590 = load %struct.Memory*, %struct.Memory** %MEMORY, align 8
  %591 = load i64, i64* @RSP_2312_293da00, align 8, !tbaa !1314
  %sub.i.i5 = add i64 %591, -8
  %592 = inttoptr i64 %sub.i.i5 to i64*
  %593 = inttoptr i64 %sub.i.i5 to i64*
  %594 = ptrtoint i64* %593 to i64
  store i64 %589, i64* %592, align 8
  store i64 %sub.i.i5, i64* @RSP_2312_293da00, align 8, !tbaa !1290
  store i64 %588, i64* @RIP_2472_293da00, align 8, !tbaa !1290
  store i64 %588, i64* %NEXT_PC, align 8, !tbaa !1290
  store i64 %589, i64* %RETURN_PC, align 8, !tbaa !1290
  store volatile %struct.Memory* %590, %struct.Memory** %MEMORY, align 8
  %595 = load %struct.Memory*, %struct.Memory** %MEMORY, align 8
  %596 = call %struct.Memory* @ext_4041f8__ZNSt7__cxx1112basic_stringIcSt11char_traitsIcESaIcEED1Ev(%struct.State* @__mcsema_reg_state, i64 undef, %struct.Memory* %595)
  store %struct.Memory* %596, %struct.Memory** %MEMORY, align 8
  store i8* @data_4013ea, i8** @RIP_2472_2948dd0, align 8
  store i64 ptrtoint (i8* @data_4013ea to i64), i64* %NEXT_PC, align 8
  br label %inst_4013ea

inst_4013ee:                                      ; preds = %inst_4013ea
  %597 = load volatile i64, i64* %NEXT_PC, align 8
  store volatile i64 %597, i64* @RIP_2472_293da00, align 8
  %598 = add i64 %597, 5
  store volatile i64 %598, i64* %NEXT_PC, align 8
  %599 = load i64, i64* %NEXT_PC, align 8
  %600 = sub i64 %599, 739
  %601 = load i64, i64* %NEXT_PC, align 8
  %602 = load %struct.Memory*, %struct.Memory** %MEMORY, align 8
  %603 = load i64, i64* @RSP_2312_293da00, align 8, !tbaa !1314
  %sub.i.i = add i64 %603, -8
  %604 = inttoptr i64 %sub.i.i to i64*
  %605 = inttoptr i64 %sub.i.i to i64*
  %606 = ptrtoint i64* %605 to i64
  store i64 %601, i64* %604, align 8
  store i64 %sub.i.i, i64* @RSP_2312_293da00, align 8, !tbaa !1290
  store i64 %600, i64* @RIP_2472_293da00, align 8, !tbaa !1290
  store i64 %600, i64* %NEXT_PC, align 8, !tbaa !1290
  store i64 %601, i64* %RETURN_PC, align 8, !tbaa !1290
  store volatile %struct.Memory* %602, %struct.Memory** %MEMORY, align 8
  %607 = load %struct.Memory*, %struct.Memory** %MEMORY, align 8
  %608 = call %struct.Memory* @ext_404240__Unwind_Resume(%struct.State* @__mcsema_reg_state, i64 undef, %struct.Memory* %607)
  store %struct.Memory* %608, %struct.Memory** %MEMORY, align 8
  store i8* @data_4013f3, i8** @RIP_2472_2948dd0, align 8
  store i64 ptrtoint (i8* @data_4013f3 to i64), i64* %NEXT_PC, align 8
  br label %inst_4013f3

inst_4013f3:                                      ; preds = %inst_4013ee
  %609 = load volatile i64, i64* %NEXT_PC, align 8
  store volatile i64 %609, i64* @RIP_2472_293da00, align 8
  %610 = add i64 %609, 10
  store volatile i64 %610, i64* %NEXT_PC, align 8
  %611 = load i64, i64* @RAX_2216_293da00, align 8
  %612 = load i64, i64* @RAX_2216_293da00, align 8
  %613 = mul i64 %612, 1
  %614 = add i64 %611, %613
  %615 = load i16, i16* @RAX_2216_293d9d0, align 2
  %616 = zext i16 %615 to i64
  %617 = load %struct.Memory*, %struct.Memory** %MEMORY, align 8
  store volatile %struct.Memory* %617, %struct.Memory** %MEMORY, align 8
  br label %inst_4013fd

inst_4013fd:                                      ; preds = %inst_4013f3
  %618 = load volatile i64, i64* %NEXT_PC, align 8
  store volatile i64 %618, i64* @RIP_2472_293da00, align 8
  %619 = add i64 %618, 3
  store volatile i64 %619, i64* %NEXT_PC, align 8
  %620 = load i32, i32* @RAX_2216_293d9e8, align 4
  %621 = zext i32 %620 to i64
  %622 = load %struct.Memory*, %struct.Memory** %MEMORY, align 8
  store volatile %struct.Memory* %622, %struct.Memory** %MEMORY, align 8
  %623 = load %struct.Memory*, %struct.Memory** %MEMORY, align 8
  ret %struct.Memory* %623
}

; Function Attrs: noinline
define internal %struct.Memory* @sub_401280_frame_dummy(%struct.State* noalias nonnull align 1 %state, i64 %pc, %struct.Memory* noalias %memory) #10 {
  %1 = getelementptr inbounds %struct.State, %struct.State* %state, i32 0, i32 6, i32 11, i32 0, i32 0
  %2 = getelementptr inbounds %struct.State, %struct.State* %state, i32 0, i32 6, i32 7, i32 0, i32 0
  %BRANCH_TAKEN = alloca i8, align 1
  %RETURN_PC = alloca i64, align 8
  %MONITOR = alloca i64, align 8
  %STATE = alloca %struct.State*, align 8
  store %struct.State* @__mcsema_reg_state, %struct.State** %STATE, align 8
  %MEMORY = alloca %struct.Memory*, align 8
  store %struct.Memory* %memory, %struct.Memory** %MEMORY, align 8
  %NEXT_PC = alloca i64, align 8
  store volatile i64 %pc, i64* %NEXT_PC, align 8
  %ESBASE = alloca i64, align 8
  store volatile i64 0, i64* %ESBASE, align 8
  %DSBASE = alloca i64, align 8
  store volatile i64 0, i64* %DSBASE, align 8
  %CSBASE = alloca i64, align 8
  store volatile i64 0, i64* %CSBASE, align 8
  %SSBASE = alloca i64, align 8
  store volatile i64 0, i64* %SSBASE, align 8
  store i64 ptrtoint (void ()* @frame_dummy to i64), i64* %NEXT_PC, align 8
  store void ()* @frame_dummy, void ()** @RIP_2472_294e750, align 8
  %stack_ptr_var = alloca i64, i64 1, align 8
  %frame_ptr_var = alloca i64, i64 1, align 8
  br label %inst_401280

inst_401280:                                      ; preds = %0
  %3 = load volatile i64, i64* %NEXT_PC, align 8
  store volatile i64 %3, i64* @RIP_2472_293da00, align 8
  %4 = add i64 %3, 4
  store volatile i64 %4, i64* %NEXT_PC, align 8
  %5 = load i32, i32* @RDX_2264_293d9e8, align 4
  %6 = zext i32 %5 to i64
  %7 = load i32, i32* @RDI_2296_293d9e8, align 4
  %8 = zext i32 %7 to i64
  %9 = load %struct.Memory*, %struct.Memory** %MEMORY, align 8
  store volatile %struct.Memory* %9, %struct.Memory** %MEMORY, align 8
  br label %inst_401284

inst_401286:                                      ; No predecessors!
  %10 = load volatile i64, i64* %NEXT_PC, align 8
  store volatile i64 %10, i64* @RIP_2472_293da00, align 8
  %11 = add i64 %10, 10
  store volatile i64 %11, i64* %NEXT_PC, align 8
  %12 = load i64, i64* @RAX_2216_293da00, align 8
  %13 = load i64, i64* @RAX_2216_293da00, align 8
  %14 = mul i64 %13, 1
  %15 = add i64 %12, %14
  %16 = load i16, i16* @RAX_2216_293d9d0, align 2
  %17 = zext i16 %16 to i64
  %18 = load %struct.Memory*, %struct.Memory** %MEMORY, align 8
  store volatile %struct.Memory* %18, %struct.Memory** %MEMORY, align 8
  %19 = load %struct.Memory*, %struct.Memory** %MEMORY, align 8
  ret %struct.Memory* %19

inst_401284:                                      ; preds = %inst_401280
  %20 = load volatile i64, i64* %NEXT_PC, align 8
  store volatile i64 %20, i64* @RIP_2472_293da00, align 8
  %21 = add i64 %20, 2
  store volatile i64 %21, i64* %NEXT_PC, align 8
  %22 = load i64, i64* %NEXT_PC, align 8
  %23 = sub i64 %22, 118
  %24 = load %struct.Memory*, %struct.Memory** %MEMORY, align 8
  store i64 %23, i64* @RIP_2472_293da00, align 8, !tbaa !1290
  store i64 %23, i64* %NEXT_PC, align 8, !tbaa !1290
  store volatile %struct.Memory* %24, %struct.Memory** %MEMORY, align 8
  br label %inst_401210

inst_401210:                                      ; preds = %inst_401284
  %25 = load %struct.Memory*, %struct.Memory** %MEMORY, align 8
  %26 = load i64, i64* %NEXT_PC, align 8
  %27 = call %struct.Memory* @sub_401210_register_tm_clones(%struct.State* @__mcsema_reg_state, i64 %26, %struct.Memory* %25)
  store %struct.Memory* %27, %struct.Memory** %MEMORY, align 8
  ret %struct.Memory* %27
}

; Function Attrs: noinline
define internal %struct.Memory* @sub_401250___do_global_dtors_aux(%struct.State* noalias nonnull align 1 %state, i64 %pc, %struct.Memory* noalias %memory) #10 {
  %1 = getelementptr inbounds %struct.State, %struct.State* %state, i32 0, i32 6, i32 11, i32 0, i32 0
  %2 = getelementptr inbounds %struct.State, %struct.State* %state, i32 0, i32 6, i32 7, i32 0, i32 0
  %BRANCH_TAKEN = alloca i8, align 1
  %RETURN_PC = alloca i64, align 8
  %MONITOR = alloca i64, align 8
  %STATE = alloca %struct.State*, align 8
  store %struct.State* @__mcsema_reg_state, %struct.State** %STATE, align 8
  %MEMORY = alloca %struct.Memory*, align 8
  store %struct.Memory* %memory, %struct.Memory** %MEMORY, align 8
  %NEXT_PC = alloca i64, align 8
  store volatile i64 %pc, i64* %NEXT_PC, align 8
  %ESBASE = alloca i64, align 8
  store volatile i64 0, i64* %ESBASE, align 8
  %DSBASE = alloca i64, align 8
  store volatile i64 0, i64* %DSBASE, align 8
  %CSBASE = alloca i64, align 8
  store volatile i64 0, i64* %CSBASE, align 8
  %SSBASE = alloca i64, align 8
  store volatile i64 0, i64* %SSBASE, align 8
  store i64 ptrtoint (void ()* @__do_global_dtors_aux to i64), i64* %NEXT_PC, align 8
  store void ()* @__do_global_dtors_aux, void ()** @RIP_2472_294e750, align 8
  %stack_ptr_var = alloca i64, i64 1, align 8
  %frame_ptr_var = alloca i64, i64 1, align 8
  br label %inst_401250

inst_40126f:                                      ; No predecessors!
  %3 = load volatile i64, i64* %NEXT_PC, align 8
  store volatile i64 %3, i64* @RIP_2472_293da00, align 8
  %4 = add i64 %3, 1
  store volatile i64 %4, i64* %NEXT_PC, align 8
  %5 = load %struct.Memory*, %struct.Memory** %MEMORY, align 8
  store volatile %struct.Memory* %5, %struct.Memory** %MEMORY, align 8
  br label %inst_401270

inst_401250:                                      ; preds = %0
  %6 = load volatile i64, i64* %NEXT_PC, align 8
  store volatile i64 %6, i64* @RIP_2472_293da00, align 8
  %7 = add i64 %6, 4
  store volatile i64 %7, i64* %NEXT_PC, align 8
  %8 = load i32, i32* @RDX_2264_293d9e8, align 4
  %9 = zext i32 %8 to i64
  %10 = load i32, i32* @RDI_2296_293d9e8, align 4
  %11 = zext i32 %10 to i64
  %12 = load %struct.Memory*, %struct.Memory** %MEMORY, align 8
  store volatile %struct.Memory* %12, %struct.Memory** %MEMORY, align 8
  br label %inst_401254

inst_401271:                                      ; No predecessors!
  %13 = load volatile i64, i64* %NEXT_PC, align 8
  store volatile i64 %13, i64* @RIP_2472_293da00, align 8
  %14 = add i64 %13, 11
  store volatile i64 %14, i64* %NEXT_PC, align 8
  %15 = load i64, i64* @RAX_2216_293da00, align 8
  %16 = load i64, i64* @RAX_2216_293da00, align 8
  %17 = mul i64 %16, 1
  %18 = add i64 %15, %17
  %19 = load i16, i16* @RAX_2216_293d9d0, align 2
  %20 = zext i16 %19 to i64
  %21 = load %struct.Memory*, %struct.Memory** %MEMORY, align 8
  store volatile %struct.Memory* %21, %struct.Memory** %MEMORY, align 8
  br label %inst_40127c

inst_401270:                                      ; preds = %58, %inst_40126f
  %22 = load volatile i64, i64* %NEXT_PC, align 8
  store volatile i64 %22, i64* @RIP_2472_293da00, align 8
  %23 = add i64 %22, 1
  store volatile i64 %23, i64* %NEXT_PC, align 8
  %24 = load %struct.Memory*, %struct.Memory** %MEMORY, align 8
  %25 = load i64*, i64** @RSP_2312_2948f30, align 8
  %26 = load i64*, i64** @RSP_2312_2948f30, align 8
  %27 = load i64, i64* @RSP_2312_293da00, align 8, !tbaa !1314
  %28 = ptrtoint i64* %26 to i64
  %29 = load i64, i64* %25, align 8
  store i64 %29, i64* @RIP_2472_293da00, align 8, !tbaa !1290
  store i64 %29, i64* %NEXT_PC, align 8, !tbaa !1290
  %30 = load i64, i64* @RSP_2312_293da00, align 8, !tbaa !1314
  %add.i.i8 = add i64 %30, 8
  store i64 %add.i.i8, i64* @RSP_2312_293da00, align 8, !tbaa !1290
  store volatile %struct.Memory* %24, %struct.Memory** %MEMORY, align 8
  %31 = load %struct.Memory*, %struct.Memory** %MEMORY, align 8
  ret %struct.Memory* %31

inst_40125d:                                      ; preds = %59
  %32 = load volatile i64, i64* %NEXT_PC, align 8
  store volatile i64 %32, i64* @RIP_2472_293da00, align 8
  %33 = add i64 %32, 1
  store volatile i64 %33, i64* %NEXT_PC, align 8
  %34 = load i64, i64* @RBP_2328_293da00, align 8
  %35 = load %struct.Memory*, %struct.Memory** %MEMORY, align 8
  %36 = load i64, i64* @RSP_2312_293da00, align 8, !tbaa !1314
  %sub.i.i.i = add i64 %36, -8
  %37 = inttoptr i64 %sub.i.i.i to i64*
  %38 = inttoptr i64 %sub.i.i.i to i64*
  %39 = ptrtoint i64* %38 to i64
  store i64 %34, i64* %37, align 8
  store i64 %sub.i.i.i, i64* @RSP_2312_293da00, align 8, !tbaa !1290
  store volatile %struct.Memory* %35, %struct.Memory** %MEMORY, align 8
  br label %inst_40125e

inst_401254:                                      ; preds = %inst_401250
  %40 = load volatile i64, i64* %NEXT_PC, align 8
  store volatile i64 %40, i64* @RIP_2472_293da00, align 8
  %41 = add i64 %40, 7
  store volatile i64 %41, i64* %NEXT_PC, align 8
  %42 = load %struct.Memory*, %struct.Memory** %MEMORY, align 8
  %43 = load i8, i8* @data_4041d0, align 1
  store i8 0, i8* @CF_2065_293d9b8, align 1, !tbaa !1294
  %conv.i.i.i.i = zext i8 %43 to i32
  %44 = call i32 @llvm.ctpop.i32(i32 %conv.i.i.i.i) #14, !range !1308
  %45 = trunc i32 %44 to i8
  %46 = and i8 %45, 1
  %47 = xor i8 %46, 1
  store i8 %47, i8* @PF_2067_293d9b8, align 1, !tbaa !1309
  store i8 0, i8* @AF_2069_293d9b8, align 1, !tbaa !1310
  %cmp.i24.i.i.i = icmp eq i8 %43, 0
  %conv5.i.i.i = zext i1 %cmp.i24.i.i.i to i8
  store i8 %conv5.i.i.i, i8* @ZF_2071_293d9b8, align 1, !tbaa !1311
  %res.lobit.i.i.i = lshr i8 %43, 7
  store i8 %res.lobit.i.i.i, i8* @SF_2073_293d9b8, align 1, !tbaa !1312
  %48 = lshr i8 %43, 7
  %xor1215.i.i.i.i = xor i8 %res.lobit.i.i.i, %48
  %narrow.i.i.i.i = add nuw nsw i8 %xor1215.i.i.i.i, %48
  %cmp.i.i.i.i = icmp eq i8 %narrow.i.i.i.i, 2
  %conv11.i.i.i = zext i1 %cmp.i.i.i.i to i8
  store i8 %conv11.i.i.i, i8* @OF_2077_293d9b8, align 1, !tbaa !1313
  store volatile %struct.Memory* %42, %struct.Memory** %MEMORY, align 8
  br label %inst_40125b

inst_40125b:                                      ; preds = %inst_401254
  %49 = load volatile i64, i64* %NEXT_PC, align 8
  store volatile i64 %49, i64* @RIP_2472_293da00, align 8
  %50 = add i64 %49, 2
  store volatile i64 %50, i64* %NEXT_PC, align 8
  %51 = load i64, i64* %NEXT_PC, align 8
  %52 = add i64 %51, 19
  %53 = load i64, i64* %NEXT_PC, align 8
  %54 = load %struct.Memory*, %struct.Memory** %MEMORY, align 8
  %55 = load i8, i8* @ZF_2071_293d9b8, align 1, !tbaa !1311
  %tobool.not.i = icmp eq i8 %55, 0
  %frombool.i = zext i1 %tobool.not.i to i8
  store i8 %frombool.i, i8* %BRANCH_TAKEN, align 1, !tbaa !1314
  %cond1.i.i = select i1 %tobool.not.i, i64 %52, i64 %53
  store i64 %cond1.i.i, i64* %NEXT_PC, align 8, !tbaa !1290
  store volatile %struct.Memory* %54, %struct.Memory** %MEMORY, align 8
  %56 = load i8, i8* %BRANCH_TAKEN, align 1
  %57 = icmp eq i8 %56, 1
  br i1 %57, label %58, label %59

58:                                               ; preds = %inst_40125b
  br label %inst_401270

59:                                               ; preds = %inst_40125b
  br label %inst_40125d

inst_40125e:                                      ; preds = %inst_40125d
  %60 = load volatile i64, i64* %NEXT_PC, align 8
  store volatile i64 %60, i64* @RIP_2472_293da00, align 8
  %61 = add i64 %60, 3
  store volatile i64 %61, i64* %NEXT_PC, align 8
  %62 = load i64, i64* @RSP_2312_293da00, align 8
  %63 = load %struct.Memory*, %struct.Memory** %MEMORY, align 8
  store i64 %62, i64* @RBP_2328_293da00, align 8, !tbaa !1290
  store volatile %struct.Memory* %63, %struct.Memory** %MEMORY, align 8
  br label %inst_401261

inst_401261:                                      ; preds = %inst_40125e
  %64 = load volatile i64, i64* %NEXT_PC, align 8
  store volatile i64 %64, i64* @RIP_2472_293da00, align 8
  %65 = add i64 %64, 5
  store volatile i64 %65, i64* %NEXT_PC, align 8
  %66 = load i64, i64* %NEXT_PC, align 8
  %67 = sub i64 %66, 134
  %68 = load i64, i64* %NEXT_PC, align 8
  %69 = load %struct.Memory*, %struct.Memory** %MEMORY, align 8
  %70 = load i64, i64* @RSP_2312_293da00, align 8, !tbaa !1314
  %sub.i.i = add i64 %70, -8
  %71 = inttoptr i64 %sub.i.i to i64*
  %72 = inttoptr i64 %sub.i.i to i64*
  %73 = ptrtoint i64* %72 to i64
  store i64 %68, i64* %71, align 8
  store i64 %sub.i.i, i64* @RSP_2312_293da00, align 8, !tbaa !1290
  store i64 %67, i64* @RIP_2472_293da00, align 8, !tbaa !1290
  store i64 %67, i64* %NEXT_PC, align 8, !tbaa !1290
  store i64 %68, i64* %RETURN_PC, align 8, !tbaa !1290
  store volatile %struct.Memory* %69, %struct.Memory** %MEMORY, align 8
  %74 = load %struct.Memory*, %struct.Memory** %MEMORY, align 8
  %75 = call %struct.Memory* @sub_4011e0_deregister_tm_clones(%struct.State* @__mcsema_reg_state, i64 undef, %struct.Memory* %74)
  store %struct.Memory* %75, %struct.Memory** %MEMORY, align 8
  store i8* @data_401266, i8** @RIP_2472_2948dd0, align 8
  store i64 ptrtoint (i8* @data_401266 to i64), i64* %NEXT_PC, align 8
  br label %inst_401266

inst_401266:                                      ; preds = %inst_401261
  %76 = load volatile i64, i64* %NEXT_PC, align 8
  store volatile i64 %76, i64* @RIP_2472_293da00, align 8
  %77 = add i64 %76, 7
  store volatile i64 %77, i64* %NEXT_PC, align 8
  %78 = load %struct.Memory*, %struct.Memory** %MEMORY, align 8
  store i8 1, i8* @data_4041d0, align 1
  store volatile %struct.Memory* %78, %struct.Memory** %MEMORY, align 8
  br label %inst_40126d

inst_40126d:                                      ; preds = %inst_401266
  %79 = load volatile i64, i64* %NEXT_PC, align 8
  store volatile i64 %79, i64* @RIP_2472_293da00, align 8
  %80 = add i64 %79, 1
  store volatile i64 %80, i64* %NEXT_PC, align 8
  %81 = load %struct.Memory*, %struct.Memory** %MEMORY, align 8
  %82 = load i64*, i64** @RSP_2312_2948f30, align 8
  %83 = load i64*, i64** @RSP_2312_2948f30, align 8
  %84 = load i64, i64* @RSP_2312_293da00, align 8, !tbaa !1314
  %add.i.i2 = add i64 %84, 8
  store i64 %add.i.i2, i64* @RSP_2312_293da00, align 8, !tbaa !1290
  %85 = ptrtoint i64* %83 to i64
  %86 = load i64, i64* %82, align 8
  store i64 %86, i64* @RBP_2328_293da00, align 8, !tbaa !1290
  store volatile %struct.Memory* %81, %struct.Memory** %MEMORY, align 8
  br label %inst_40126e

inst_40126e:                                      ; preds = %inst_40126d
  %87 = load volatile i64, i64* %NEXT_PC, align 8
  store volatile i64 %87, i64* @RIP_2472_293da00, align 8
  %88 = add i64 %87, 1
  store volatile i64 %88, i64* %NEXT_PC, align 8
  %89 = load %struct.Memory*, %struct.Memory** %MEMORY, align 8
  %90 = load i64*, i64** @RSP_2312_2948f30, align 8
  %91 = load i64*, i64** @RSP_2312_2948f30, align 8
  %92 = load i64, i64* @RSP_2312_293da00, align 8, !tbaa !1314
  %93 = ptrtoint i64* %91 to i64
  %94 = load i64, i64* %90, align 8
  store i64 %94, i64* @RIP_2472_293da00, align 8, !tbaa !1290
  store i64 %94, i64* %NEXT_PC, align 8, !tbaa !1290
  %95 = load i64, i64* @RSP_2312_293da00, align 8, !tbaa !1314
  %add.i.i = add i64 %95, 8
  store i64 %add.i.i, i64* @RSP_2312_293da00, align 8, !tbaa !1290
  store volatile %struct.Memory* %89, %struct.Memory** %MEMORY, align 8
  %96 = load %struct.Memory*, %struct.Memory** %MEMORY, align 8
  ret %struct.Memory* %96

inst_40127c:                                      ; preds = %inst_401271
  %97 = load volatile i64, i64* %NEXT_PC, align 8
  store volatile i64 %97, i64* @RIP_2472_293da00, align 8
  %98 = add i64 %97, 4
  store volatile i64 %98, i64* %NEXT_PC, align 8
  %99 = load i32, i32* @RAX_2216_293d9e8, align 4
  %100 = zext i32 %99 to i64
  %101 = load %struct.Memory*, %struct.Memory** %MEMORY, align 8
  store volatile %struct.Memory* %101, %struct.Memory** %MEMORY, align 8
  %102 = load %struct.Memory*, %struct.Memory** %MEMORY, align 8
  ret %struct.Memory* %102
}

; Function Attrs: noinline
define internal %struct.Memory* @sub_401000__init_proc(%struct.State* noalias nonnull align 1 %state, i64 %pc, %struct.Memory* noalias %memory) #10 {
  %STATE.i = alloca %struct.State*, align 8
  %MEMORY.i = alloca %struct.Memory*, align 8
  %NEXT_PC.i = alloca i64, align 8
  %ESBASE.i = alloca i64, align 8
  %DSBASE.i = alloca i64, align 8
  %CSBASE.i = alloca i64, align 8
  %SSBASE.i = alloca i64, align 8
  %1 = getelementptr inbounds %struct.State, %struct.State* %state, i32 0, i32 6, i32 11, i32 0, i32 0
  %2 = getelementptr inbounds %struct.State, %struct.State* %state, i32 0, i32 6, i32 7, i32 0, i32 0
  %BRANCH_TAKEN = alloca i8, align 1
  %RETURN_PC = alloca i64, align 8
  %MONITOR = alloca i64, align 8
  %STATE = alloca %struct.State*, align 8
  store %struct.State* @__mcsema_reg_state, %struct.State** %STATE, align 8
  %MEMORY = alloca %struct.Memory*, align 8
  store %struct.Memory* %memory, %struct.Memory** %MEMORY, align 8
  %NEXT_PC = alloca i64, align 8
  store volatile i64 %pc, i64* %NEXT_PC, align 8
  %ESBASE = alloca i64, align 8
  store volatile i64 0, i64* %ESBASE, align 8
  %DSBASE = alloca i64, align 8
  store volatile i64 0, i64* %DSBASE, align 8
  %CSBASE = alloca i64, align 8
  store volatile i64 0, i64* %CSBASE, align 8
  %SSBASE = alloca i64, align 8
  store volatile i64 0, i64* %SSBASE, align 8
  store i64 ptrtoint (void ()* @.init_proc to i64), i64* %NEXT_PC, align 8
  store void ()* @.init_proc, void ()** @RIP_2472_294e750, align 8
  %stack_ptr_var = alloca i64, i64 1, align 8
  %frame_ptr_var = alloca i64, i64 1, align 8
  br label %inst_401000

inst_401000:                                      ; preds = %0
  %3 = load volatile i64, i64* %NEXT_PC, align 8
  store volatile i64 %3, i64* @RIP_2472_293da00, align 8
  %4 = add i64 %3, 4
  store volatile i64 %4, i64* %NEXT_PC, align 8
  %5 = load i32, i32* @RDX_2264_293d9e8, align 4
  %6 = zext i32 %5 to i64
  %7 = load i32, i32* @RDI_2296_293d9e8, align 4
  %8 = zext i32 %7 to i64
  %9 = load %struct.Memory*, %struct.Memory** %MEMORY, align 8
  store volatile %struct.Memory* %9, %struct.Memory** %MEMORY, align 8
  br label %inst_401004

inst_401014:                                      ; preds = %103
  %10 = load volatile i64, i64* %NEXT_PC, align 8
  store volatile i64 %10, i64* @RIP_2472_293da00, align 8
  %11 = add i64 %10, 2
  store volatile i64 %11, i64* %NEXT_PC, align 8
  %12 = load i64, i64* @RAX_2216_293da00, align 8
  %13 = load i64, i64* %NEXT_PC, align 8
  %14 = load %struct.Memory*, %struct.Memory** %MEMORY, align 8
  %15 = load i64, i64* @RSP_2312_293da00, align 8, !tbaa !1314
  %sub.i.i = add i64 %15, -8
  %16 = inttoptr i64 %sub.i.i to i64*
  %17 = inttoptr i64 %sub.i.i to i64*
  %18 = ptrtoint i64* %17 to i64
  store i64 %13, i64* %16, align 8
  store i64 %sub.i.i, i64* @RSP_2312_293da00, align 8, !tbaa !1290
  store i64 %12, i64* @RIP_2472_293da00, align 8, !tbaa !1290
  store i64 %12, i64* %NEXT_PC, align 8, !tbaa !1290
  store i64 %13, i64* %RETURN_PC, align 8, !tbaa !1290
  store volatile %struct.Memory* %14, %struct.Memory** %MEMORY, align 8
  %19 = load %struct.Memory*, %struct.Memory** %MEMORY, align 8
  %20 = load i64, i64* %NEXT_PC, align 8
  %21 = bitcast %struct.State** %STATE.i to i8*
  call void @llvm.lifetime.start.p0i8(i64 8, i8* %21)
  %22 = bitcast %struct.Memory** %MEMORY.i to i8*
  call void @llvm.lifetime.start.p0i8(i64 8, i8* %22)
  %23 = bitcast i64* %NEXT_PC.i to i8*
  call void @llvm.lifetime.start.p0i8(i64 8, i8* %23)
  %24 = bitcast i64* %ESBASE.i to i8*
  call void @llvm.lifetime.start.p0i8(i64 8, i8* %24)
  %25 = bitcast i64* %DSBASE.i to i8*
  call void @llvm.lifetime.start.p0i8(i64 8, i8* %25)
  %26 = bitcast i64* %CSBASE.i to i8*
  call void @llvm.lifetime.start.p0i8(i64 8, i8* %26)
  %27 = bitcast i64* %SSBASE.i to i8*
  call void @llvm.lifetime.start.p0i8(i64 8, i8* %27)
  store %struct.State* @__mcsema_reg_state, %struct.State** %STATE.i, align 8, !noalias !1326
  store %struct.Memory* %19, %struct.Memory** %MEMORY.i, align 8, !noalias !1326
  store volatile i64 %20, i64* %NEXT_PC.i, align 8, !noalias !1326
  store volatile i64 0, i64* %ESBASE.i, align 8, !noalias !1326
  store volatile i64 0, i64* %DSBASE.i, align 8, !noalias !1326
  store volatile i64 0, i64* %CSBASE.i, align 8, !noalias !1326
  store volatile i64 0, i64* %SSBASE.i, align 8, !noalias !1326
  %28 = inttoptr i64 %20 to i64 (i64, i64, i64, i64, i64, i64, i64, i64)*
  %29 = load i64, i64* @RSP_2312_293da00, align 8, !alias.scope !1330, !noalias !1331
  %30 = add i64 %29, 8
  %31 = load i64*, i64** @RSP_2312_2948f30, align 8
  %32 = load i64*, i64** @RSP_2312_2948f30, align 8
  %33 = load i64, i64* @RSP_2312_293da00, align 8, !alias.scope !1330, !noalias !1331
  %34 = ptrtoint i64* %32 to i64
  %35 = load i64, i64* %31, align 8
  %param0.i = load i64, i64* @RDI_2296_293da00, align 8, !alias.scope !1330, !noalias !1331
  %param1.i = load i64, i64* @RSI_2280_293da00, align 8, !alias.scope !1330, !noalias !1331
  %param2.i = load i64, i64* @RDX_2264_293da00, align 8, !alias.scope !1330, !noalias !1331
  %param3.i = load i64, i64* @RCX_2248_293da00, align 8, !alias.scope !1330, !noalias !1331
  %param4.i = load i64, i64* @R8_2344_293da00, align 8, !alias.scope !1330, !noalias !1331
  %param5.i = load i64, i64* @R9_2360_293da00, align 8, !alias.scope !1330, !noalias !1331
  %36 = load i64, i64* @RSP_2312_293da00, align 8, !alias.scope !1330, !noalias !1331
  %37 = add i64 %36, 8
  %38 = inttoptr i64 %37 to i64*
  %39 = inttoptr i64 %37 to i64*
  %40 = ptrtoint i64* %39 to i64
  %41 = load i64, i64* %38, align 8
  %42 = load i64, i64* @RSP_2312_293da00, align 8, !alias.scope !1330, !noalias !1331
  %43 = add i64 %42, 16
  %44 = inttoptr i64 %43 to i64*
  %45 = inttoptr i64 %43 to i64*
  %46 = ptrtoint i64* %45 to i64
  %47 = load i64, i64* %44, align 8
  %48 = call i64 %28(i64 %param0.i, i64 %param1.i, i64 %param2.i, i64 %param3.i, i64 %param4.i, i64 %param5.i, i64 %41, i64 %47) #14
  store volatile i64 %48, i64* @RAX_2216_293da00, align 8, !alias.scope !1330, !noalias !1331
  store i64 %35, i64* %NEXT_PC.i, align 8, !noalias !1326
  store volatile i64 %30, i64* @RSP_2312_293da00, align 8, !alias.scope !1330, !noalias !1331
  %49 = bitcast %struct.State** %STATE.i to i8*
  call void @llvm.lifetime.end.p0i8(i64 8, i8* %49)
  %50 = bitcast %struct.Memory** %MEMORY.i to i8*
  call void @llvm.lifetime.end.p0i8(i64 8, i8* %50)
  %51 = bitcast i64* %NEXT_PC.i to i8*
  call void @llvm.lifetime.end.p0i8(i64 8, i8* %51)
  %52 = bitcast i64* %ESBASE.i to i8*
  call void @llvm.lifetime.end.p0i8(i64 8, i8* %52)
  %53 = bitcast i64* %DSBASE.i to i8*
  call void @llvm.lifetime.end.p0i8(i64 8, i8* %53)
  %54 = bitcast i64* %CSBASE.i to i8*
  call void @llvm.lifetime.end.p0i8(i64 8, i8* %54)
  %55 = bitcast i64* %SSBASE.i to i8*
  call void @llvm.lifetime.end.p0i8(i64 8, i8* %55)
  store %struct.Memory* %19, %struct.Memory** %MEMORY, align 8
  store i8* @data_401016, i8** @RIP_2472_2948dd0, align 8
  store i64 ptrtoint (i8* @data_401016 to i64), i64* %NEXT_PC, align 8
  br label %inst_401016

inst_401016:                                      ; preds = %102, %inst_401014
  %56 = load volatile i64, i64* %NEXT_PC, align 8
  store volatile i64 %56, i64* @RIP_2472_293da00, align 8
  %57 = add i64 %56, 4
  store volatile i64 %57, i64* %NEXT_PC, align 8
  %58 = load i64, i64* @RSP_2312_293da00, align 8
  %59 = load %struct.Memory*, %struct.Memory** %MEMORY, align 8
  %add.i.i3 = add i64 8, %58
  store i64 %add.i.i3, i64* @RSP_2312_293da00, align 8, !tbaa !1290
  %cmp.i.i.i = icmp ult i64 %add.i.i3, %58
  %cmp1.i.i.i = icmp ult i64 %add.i.i3, 8
  %60 = or i1 %cmp.i.i.i, %cmp1.i.i.i
  %conv.i.i = zext i1 %60 to i8
  store i8 %conv.i.i, i8* @CF_2065_293d9b8, align 1, !tbaa !1294
  %conv.i.i.i.i = trunc i64 %add.i.i3 to i32
  %conv.i.i.i.i.i = and i32 %conv.i.i.i.i, 255
  %61 = call i32 @llvm.ctpop.i32(i32 %conv.i.i.i.i.i) #14, !range !1308
  %62 = trunc i32 %61 to i8
  %63 = and i8 %62, 1
  %64 = xor i8 %63, 1
  store i8 %64, i8* @PF_2067_293d9b8, align 1, !tbaa !1309
  %xor.i25.i.i.i = xor i64 8, %58
  %xor1.i.i.i.i = xor i64 %xor.i25.i.i.i, %add.i.i3
  %and.i.i.i.i = lshr i64 %xor1.i.i.i.i, 4
  %65 = trunc i64 %and.i.i.i.i to i8
  %66 = and i8 %65, 1
  store i8 %66, i8* @AF_2069_293d9b8, align 1, !tbaa !1310
  %cmp.i24.i.i.i = icmp eq i64 %add.i.i3, 0
  %conv5.i.i.i = zext i1 %cmp.i24.i.i.i to i8
  store i8 %conv5.i.i.i, i8* @ZF_2071_293d9b8, align 1, !tbaa !1311
  %res.lobit.i.i.i = lshr i64 %add.i.i3, 63
  %67 = trunc i64 %res.lobit.i.i.i to i8
  store i8 %67, i8* @SF_2073_293d9b8, align 1, !tbaa !1312
  %shr.i.i.i.i = lshr i64 %58, 63
  %xor.i.i.i.i = xor i64 %res.lobit.i.i.i, %shr.i.i.i.i
  %add.i.i.i.i = add nuw nsw i64 %xor.i.i.i.i, %res.lobit.i.i.i
  %cmp.i.i.i.i = icmp eq i64 %add.i.i.i.i, 2
  %conv11.i.i.i = zext i1 %cmp.i.i.i.i to i8
  store i8 %conv11.i.i.i, i8* @OF_2077_293d9b8, align 1, !tbaa !1313
  store volatile %struct.Memory* %59, %struct.Memory** %MEMORY, align 8
  br label %inst_40101a

inst_401004:                                      ; preds = %inst_401000
  %68 = load volatile i64, i64* %NEXT_PC, align 8
  store volatile i64 %68, i64* @RIP_2472_293da00, align 8
  %69 = add i64 %68, 4
  store volatile i64 %69, i64* %NEXT_PC, align 8
  %70 = load i64, i64* @RSP_2312_293da00, align 8
  %71 = load %struct.Memory*, %struct.Memory** %MEMORY, align 8
  %sub.i.i4 = sub i64 %70, 8
  store i64 %sub.i.i4, i64* @RSP_2312_293da00, align 8, !tbaa !1290
  %cmp.i.i.i5 = icmp ult i64 %70, 8
  %conv.i.i6 = zext i1 %cmp.i.i.i5 to i8
  store i8 %conv.i.i6, i8* @CF_2065_293d9b8, align 1, !tbaa !1294
  %conv.i.i.i.i8 = trunc i64 %sub.i.i4 to i32
  %conv.i.i.i.i.i9 = and i32 %conv.i.i.i.i8, 255
  %72 = call i32 @llvm.ctpop.i32(i32 %conv.i.i.i.i.i9) #14, !range !1308
  %73 = trunc i32 %72 to i8
  %74 = and i8 %73, 1
  %75 = xor i8 %74, 1
  store i8 %75, i8* @PF_2067_293d9b8, align 1, !tbaa !1309
  %xor.i25.i.i.i11 = xor i64 8, %70
  %xor1.i.i.i.i12 = xor i64 %xor.i25.i.i.i11, %sub.i.i4
  %and.i.i.i.i13 = lshr i64 %xor1.i.i.i.i12, 4
  %76 = trunc i64 %and.i.i.i.i13 to i8
  %77 = and i8 %76, 1
  store i8 %77, i8* @AF_2069_293d9b8, align 1, !tbaa !1310
  %cmp.i24.i.i.i15 = icmp eq i64 %sub.i.i4, 0
  %conv5.i.i.i16 = zext i1 %cmp.i24.i.i.i15 to i8
  store i8 %conv5.i.i.i16, i8* @ZF_2071_293d9b8, align 1, !tbaa !1311
  %res.lobit.i.i.i18 = lshr i64 %sub.i.i4, 63
  %78 = trunc i64 %res.lobit.i.i.i18 to i8
  store i8 %78, i8* @SF_2073_293d9b8, align 1, !tbaa !1312
  %shr.i.i.i.i20 = lshr i64 %70, 63
  %xor3.i.i.i.i = xor i64 %res.lobit.i.i.i18, %shr.i.i.i.i20
  %add.i.i.i.i21 = add nuw nsw i64 %xor3.i.i.i.i, %shr.i.i.i.i20
  %cmp.i.i.i.i22 = icmp eq i64 %add.i.i.i.i21, 2
  %conv11.i.i.i23 = zext i1 %cmp.i.i.i.i22 to i8
  store i8 %conv11.i.i.i23, i8* @OF_2077_293d9b8, align 1, !tbaa !1313
  store volatile %struct.Memory* %71, %struct.Memory** %MEMORY, align 8
  br label %inst_401008

inst_401008:                                      ; preds = %inst_401004
  %79 = load volatile i64, i64* %NEXT_PC, align 8
  store volatile i64 %79, i64* @RIP_2472_293da00, align 8
  %80 = add i64 %79, 7
  store volatile i64 %80, i64* %NEXT_PC, align 8
  %81 = load %struct.Memory*, %struct.Memory** %MEMORY, align 8
  %82 = load i64, i64* bitcast (i8** @data_403ff8 to i64*), align 8
  store i64 %82, i64* @RAX_2216_293da00, align 8, !tbaa !1290
  store volatile %struct.Memory* %81, %struct.Memory** %MEMORY, align 8
  br label %inst_40100f

inst_40100f:                                      ; preds = %inst_401008
  %83 = load volatile i64, i64* %NEXT_PC, align 8
  store volatile i64 %83, i64* @RIP_2472_293da00, align 8
  %84 = add i64 %83, 3
  store volatile i64 %84, i64* %NEXT_PC, align 8
  %85 = load i64, i64* @RAX_2216_293da00, align 8
  %86 = load i64, i64* @RAX_2216_293da00, align 8
  %87 = load %struct.Memory*, %struct.Memory** %MEMORY, align 8
  %and.i.i = and i64 %86, %85
  store i8 0, i8* @CF_2065_293d9b8, align 1, !tbaa !1294
  %conv.i.i.i = trunc i64 %and.i.i to i32
  %conv.i.i.i.i27 = and i32 %conv.i.i.i, 255
  %88 = call i32 @llvm.ctpop.i32(i32 %conv.i.i.i.i27) #14, !range !1308
  %89 = trunc i32 %88 to i8
  %90 = and i8 %89, 1
  %91 = xor i8 %90, 1
  store i8 %91, i8* @PF_2067_293d9b8, align 1, !tbaa !1309
  %cmp.i1.i.i = icmp eq i64 %and.i.i, 0
  %conv3.i.i = zext i1 %cmp.i1.i.i to i8
  store i8 %conv3.i.i, i8* @ZF_2071_293d9b8, align 1, !tbaa !1311
  %res.lobit.i.i = lshr i64 %and.i.i, 63
  %92 = trunc i64 %res.lobit.i.i to i8
  store i8 %92, i8* @SF_2073_293d9b8, align 1, !tbaa !1312
  store i8 0, i8* @OF_2077_293d9b8, align 1, !tbaa !1313
  store i8 0, i8* @AF_2069_293d9b8, align 1, !tbaa !1310
  store volatile %struct.Memory* %87, %struct.Memory** %MEMORY, align 8
  br label %inst_401012

inst_401012:                                      ; preds = %inst_40100f
  %93 = load volatile i64, i64* %NEXT_PC, align 8
  store volatile i64 %93, i64* @RIP_2472_293da00, align 8
  %94 = add i64 %93, 2
  store volatile i64 %94, i64* %NEXT_PC, align 8
  %95 = load i64, i64* %NEXT_PC, align 8
  %96 = add i64 %95, 2
  %97 = load i64, i64* %NEXT_PC, align 8
  %98 = load %struct.Memory*, %struct.Memory** %MEMORY, align 8
  %99 = load i8, i8* @ZF_2071_293d9b8, align 1, !tbaa !1311
  store i8 %99, i8* %BRANCH_TAKEN, align 1, !tbaa !1314
  %tobool.not.i = icmp eq i8 %99, 0
  %cond1.i.i = select i1 %tobool.not.i, i64 %97, i64 %96
  store i64 %cond1.i.i, i64* %NEXT_PC, align 8, !tbaa !1290
  store volatile %struct.Memory* %98, %struct.Memory** %MEMORY, align 8
  %100 = load i8, i8* %BRANCH_TAKEN, align 1
  %101 = icmp eq i8 %100, 1
  br i1 %101, label %102, label %103

102:                                              ; preds = %inst_401012
  br label %inst_401016

103:                                              ; preds = %inst_401012
  br label %inst_401014

inst_40101a:                                      ; preds = %inst_401016
  %104 = load volatile i64, i64* %NEXT_PC, align 8
  store volatile i64 %104, i64* @RIP_2472_293da00, align 8
  %105 = add i64 %104, 1
  store volatile i64 %105, i64* %NEXT_PC, align 8
  %106 = load %struct.Memory*, %struct.Memory** %MEMORY, align 8
  %107 = load i64*, i64** @RSP_2312_2948f30, align 8
  %108 = load i64*, i64** @RSP_2312_2948f30, align 8
  %109 = load i64, i64* @RSP_2312_293da00, align 8, !tbaa !1314
  %110 = ptrtoint i64* %108 to i64
  %111 = load i64, i64* %107, align 8
  store i64 %111, i64* @RIP_2472_293da00, align 8, !tbaa !1290
  store i64 %111, i64* %NEXT_PC, align 8, !tbaa !1290
  %112 = load i64, i64* @RSP_2312_293da00, align 8, !tbaa !1314
  %add.i.i = add i64 %112, 8
  store i64 %add.i.i, i64* @RSP_2312_293da00, align 8, !tbaa !1290
  store volatile %struct.Memory* %106, %struct.Memory** %MEMORY, align 8
  %113 = load %struct.Memory*, %struct.Memory** %MEMORY, align 8
  ret %struct.Memory* %113
}

; Function Attrs: noinline
define internal %struct.Memory* @sub_401210_register_tm_clones(%struct.State* noalias nonnull align 1 %state, i64 %pc, %struct.Memory* noalias %memory) #10 {
  %STATE.i = alloca %struct.State*, align 8
  %MEMORY.i = alloca %struct.Memory*, align 8
  %NEXT_PC.i = alloca i64, align 8
  %ESBASE.i = alloca i64, align 8
  %DSBASE.i = alloca i64, align 8
  %CSBASE.i = alloca i64, align 8
  %SSBASE.i = alloca i64, align 8
  %BRANCH_TAKEN = alloca i8, align 1
  %RETURN_PC = alloca i64, align 8
  %MONITOR = alloca i64, align 8
  %STATE = alloca %struct.State*, align 8
  store %struct.State* @__mcsema_reg_state, %struct.State** %STATE, align 8
  %MEMORY = alloca %struct.Memory*, align 8
  store %struct.Memory* %memory, %struct.Memory** %MEMORY, align 8
  %NEXT_PC = alloca i64, align 8
  store volatile i64 %pc, i64* %NEXT_PC, align 8
  %ESBASE = alloca i64, align 8
  store volatile i64 0, i64* %ESBASE, align 8
  %DSBASE = alloca i64, align 8
  store volatile i64 0, i64* %DSBASE, align 8
  %CSBASE = alloca i64, align 8
  store volatile i64 0, i64* %CSBASE, align 8
  %SSBASE = alloca i64, align 8
  store volatile i64 0, i64* %SSBASE, align 8
  store i64 ptrtoint (i64 (i64, i64, i64, i64, i64, i64, i64, i64)* @register_tm_clones to i64), i64* %NEXT_PC, align 8
  store i64 (i64, i64, i64, i64, i64, i64, i64, i64)* @register_tm_clones, i64 (i64, i64, i64, i64, i64, i64, i64, i64)** @RIP_2472_37b0970, align 8
  %stack_ptr_var = alloca i64, i64 1, align 8
  %frame_ptr_var = alloca i64, i64 1, align 8
  br label %inst_401210

inst_401240:                                      ; preds = %168, %126, %119, %98
  %1 = load volatile i64, i64* %NEXT_PC, align 8
  store volatile i64 %1, i64* @RIP_2472_293da00, align 8
  %2 = add i64 %1, 1
  store volatile i64 %2, i64* %NEXT_PC, align 8
  %3 = load %struct.Memory*, %struct.Memory** %MEMORY, align 8
  %4 = load i64*, i64** @RSP_2312_2948f30, align 8
  %5 = load i64*, i64** @RSP_2312_2948f30, align 8
  %6 = load i64, i64* @RSP_2312_293da00, align 8, !tbaa !1314
  %7 = ptrtoint i64* %5 to i64
  %8 = load i64, i64* %4, align 8
  store i64 %8, i64* @RIP_2472_293da00, align 8, !tbaa !1290
  store i64 %8, i64* %NEXT_PC, align 8, !tbaa !1290
  %9 = load i64, i64* @RSP_2312_293da00, align 8, !tbaa !1314
  %add.i.i = add i64 %9, 8
  store i64 %add.i.i, i64* @RSP_2312_293da00, align 8, !tbaa !1290
  store volatile %struct.Memory* %3, %struct.Memory** %MEMORY, align 8
  %10 = load %struct.Memory*, %struct.Memory** %MEMORY, align 8
  ret %struct.Memory* %10

inst_401241:                                      ; preds = %168, %126
  %11 = load volatile i64, i64* %NEXT_PC, align 8
  store volatile i64 %11, i64* @RIP_2472_293da00, align 8
  %12 = add i64 %11, 11
  store volatile i64 %12, i64* %NEXT_PC, align 8
  %13 = load i64, i64* @RAX_2216_293da00, align 8
  %14 = load i64, i64* @RAX_2216_293da00, align 8
  %15 = mul i64 %14, 1
  %16 = add i64 %13, %15
  %17 = load i16, i16* @RAX_2216_293d9d0, align 2
  %18 = zext i16 %17 to i64
  %19 = load %struct.Memory*, %struct.Memory** %MEMORY, align 8
  store volatile %struct.Memory* %19, %struct.Memory** %MEMORY, align 8
  br label %inst_40124c

inst_40122f:                                      ; preds = %99
  %20 = load volatile i64, i64* %NEXT_PC, align 8
  store volatile i64 %20, i64* @RIP_2472_293da00, align 8
  %21 = add i64 %20, 5
  store volatile i64 %21, i64* %NEXT_PC, align 8
  %22 = load %struct.Memory*, %struct.Memory** %MEMORY, align 8
  store i64 0, i64* @RAX_2216_293da00, align 8, !tbaa !1290
  store volatile %struct.Memory* %22, %struct.Memory** %MEMORY, align 8
  br label %inst_401234

inst_401210:                                      ; preds = %0
  %23 = load volatile i64, i64* %NEXT_PC, align 8
  store volatile i64 %23, i64* @RIP_2472_293da00, align 8
  %24 = add i64 %23, 5
  store volatile i64 %24, i64* %NEXT_PC, align 8
  %25 = load %struct.Memory*, %struct.Memory** %MEMORY, align 8
  store i64 4210872, i64* @RSI_2280_293da00, align 8, !tbaa !1290
  store volatile %struct.Memory* %25, %struct.Memory** %MEMORY, align 8
  br label %inst_401215

inst_401239:                                      ; preds = %120
  %26 = load volatile i64, i64* %NEXT_PC, align 8
  store volatile i64 %26, i64* @RIP_2472_293da00, align 8
  %27 = add i64 %26, 5
  store volatile i64 %27, i64* %NEXT_PC, align 8
  %28 = load %struct.Memory*, %struct.Memory** %MEMORY, align 8
  store i64 4210872, i64* @RDI_2296_293da00, align 8, !tbaa !1290
  store volatile %struct.Memory* %28, %struct.Memory** %MEMORY, align 8
  br label %inst_40123e

inst_401215:                                      ; preds = %inst_401210
  %29 = load volatile i64, i64* %NEXT_PC, align 8
  store volatile i64 %29, i64* @RIP_2472_293da00, align 8
  %30 = add i64 %29, 7
  store volatile i64 %30, i64* %NEXT_PC, align 8
  %31 = load i64, i64* @RSI_2280_293da00, align 8
  %32 = load %struct.Memory*, %struct.Memory** %MEMORY, align 8
  %sub.i.i = sub i64 %31, 4210872
  store i64 %sub.i.i, i64* @RSI_2280_293da00, align 8, !tbaa !1290
  %cmp.i.i.i = icmp ult i64 %31, 4210872
  %conv.i.i = zext i1 %cmp.i.i.i to i8
  store i8 %conv.i.i, i8* @CF_2065_293d9b8, align 1, !tbaa !1294
  %conv.i.i.i.i = trunc i64 %sub.i.i to i32
  %conv.i.i.i.i.i = and i32 %conv.i.i.i.i, 255
  %33 = call i32 @llvm.ctpop.i32(i32 %conv.i.i.i.i.i) #14, !range !1308
  %34 = trunc i32 %33 to i8
  %35 = and i8 %34, 1
  %36 = xor i8 %35, 1
  store i8 %36, i8* @PF_2067_293d9b8, align 1, !tbaa !1309
  %xor.i25.i.i.i = xor i64 4210872, %31
  %xor1.i.i.i.i = xor i64 %xor.i25.i.i.i, %sub.i.i
  %and.i.i.i.i = lshr i64 %xor1.i.i.i.i, 4
  %37 = trunc i64 %and.i.i.i.i to i8
  %38 = and i8 %37, 1
  store i8 %38, i8* @AF_2069_293d9b8, align 1, !tbaa !1310
  %cmp.i24.i.i.i = icmp eq i64 %sub.i.i, 0
  %conv5.i.i.i = zext i1 %cmp.i24.i.i.i to i8
  store i8 %conv5.i.i.i, i8* @ZF_2071_293d9b8, align 1, !tbaa !1311
  %res.lobit.i.i.i = lshr i64 %sub.i.i, 63
  %39 = trunc i64 %res.lobit.i.i.i to i8
  store i8 %39, i8* @SF_2073_293d9b8, align 1, !tbaa !1312
  %shr.i.i.i.i = lshr i64 %31, 63
  %xor3.i.i.i.i = xor i64 %res.lobit.i.i.i, %shr.i.i.i.i
  %add.i.i.i.i = add nuw nsw i64 %xor3.i.i.i.i, %shr.i.i.i.i
  %cmp.i.i.i.i = icmp eq i64 %add.i.i.i.i, 2
  %conv11.i.i.i = zext i1 %cmp.i.i.i.i to i8
  store i8 %conv11.i.i.i, i8* @OF_2077_293d9b8, align 1, !tbaa !1313
  store volatile %struct.Memory* %32, %struct.Memory** %MEMORY, align 8
  br label %inst_40121c

inst_40121c:                                      ; preds = %inst_401215
  %40 = load volatile i64, i64* %NEXT_PC, align 8
  store volatile i64 %40, i64* @RIP_2472_293da00, align 8
  %41 = add i64 %40, 3
  store volatile i64 %41, i64* %NEXT_PC, align 8
  %42 = load i64, i64* @RSI_2280_293da00, align 8
  %43 = load %struct.Memory*, %struct.Memory** %MEMORY, align 8
  store i64 %42, i64* @RAX_2216_293da00, align 8, !tbaa !1290
  store volatile %struct.Memory* %43, %struct.Memory** %MEMORY, align 8
  br label %inst_40121f

inst_40121f:                                      ; preds = %inst_40121c
  %44 = load volatile i64, i64* %NEXT_PC, align 8
  store volatile i64 %44, i64* @RIP_2472_293da00, align 8
  %45 = add i64 %44, 4
  store volatile i64 %45, i64* %NEXT_PC, align 8
  %46 = load i64, i64* @RSI_2280_293da00, align 8
  %47 = load %struct.Memory*, %struct.Memory** %MEMORY, align 8
  %shr.i141.i = lshr i64 %46, 62
  %tobool.i44 = icmp ne i8 0, 0
  %new_val.0.i45 = lshr i64 %shr.i141.i, 1
  store i64 %new_val.0.i45, i64* @RSI_2280_293da00, align 8, !tbaa !1290
  %48 = trunc i64 %shr.i141.i to i8
  %49 = and i8 %48, 1
  store i8 %49, i8* @CF_2065_293d9b8, align 1, !tbaa !1314
  %conv.i.i48 = trunc i64 %new_val.0.i45 to i32
  %conv.i.i.i49 = and i32 %conv.i.i48, 255
  %50 = call i32 @llvm.ctpop.i32(i32 %conv.i.i.i49) #14, !range !1308
  %51 = trunc i32 %50 to i8
  %52 = and i8 %51, 1
  %53 = xor i8 %52, 1
